
GccApplication2.elf:     file format elf32-avr

Sections:
Idx Name          Size      VMA       LMA       File off  Algn
  0 .text         00001fb6  00000000  00000000  000000b4  2**1
                  CONTENTS, ALLOC, LOAD, READONLY, CODE
  1 .data         00000046  00800060  00001fb6  0000206a  2**0
                  CONTENTS, ALLOC, LOAD, DATA
  2 .bss          000002eb  008000a6  008000a6  000020b0  2**0
                  ALLOC
  3 .eeprom       000001c0  00810000  00810000  000020b0  2**0
                  CONTENTS, ALLOC, LOAD, DATA
  4 .comment      0000005c  00000000  00000000  00002270  2**0
                  CONTENTS, READONLY
  5 .note.gnu.avr.deviceinfo 0000003c  00000000  00000000  000022cc  2**2
                  CONTENTS, READONLY
  6 .debug_aranges 000003d8  00000000  00000000  00002308  2**3
                  CONTENTS, READONLY, DEBUGGING
  7 .debug_info   00003fe6  00000000  00000000  000026e0  2**0
                  CONTENTS, READONLY, DEBUGGING
  8 .debug_abbrev 00001894  00000000  00000000  000066c6  2**0
                  CONTENTS, READONLY, DEBUGGING
  9 .debug_line   000022ee  00000000  00000000  00007f5a  2**0
                  CONTENTS, READONLY, DEBUGGING
 10 .debug_frame  00000bac  00000000  00000000  0000a248  2**2
                  CONTENTS, READONLY, DEBUGGING
 11 .debug_str    0000126e  00000000  00000000  0000adf4  2**0
                  CONTENTS, READONLY, DEBUGGING
 12 .debug_loc    00003705  00000000  00000000  0000c062  2**0
                  CONTENTS, READONLY, DEBUGGING
 13 .debug_ranges 00000450  00000000  00000000  0000f767  2**0
                  CONTENTS, READONLY, DEBUGGING

Disassembly of section .text:

00000000 <__vectors>:
       0:	13 c0       	rjmp	.+38     	; 0x28 <__ctors_end>
       2:	37 c0       	rjmp	.+110    	; 0x72 <__bad_interrupt>
       4:	36 c0       	rjmp	.+108    	; 0x72 <__bad_interrupt>
       6:	35 c0       	rjmp	.+106    	; 0x72 <__bad_interrupt>
       8:	34 c0       	rjmp	.+104    	; 0x72 <__bad_interrupt>
       a:	33 c0       	rjmp	.+102    	; 0x72 <__bad_interrupt>
       c:	32 c0       	rjmp	.+100    	; 0x72 <__bad_interrupt>
       e:	31 c0       	rjmp	.+98     	; 0x72 <__bad_interrupt>
      10:	73 c9       	rjmp	.-3354   	; 0xfffff2f8 <__eeprom_end+0xff7ef138>
      12:	0f ca       	rjmp	.-3042   	; 0xfffff432 <__eeprom_end+0xff7ef272>
      14:	2e c0       	rjmp	.+92     	; 0x72 <__bad_interrupt>
      16:	2d c0       	rjmp	.+90     	; 0x72 <__bad_interrupt>
      18:	2c c0       	rjmp	.+88     	; 0x72 <__bad_interrupt>
      1a:	2b c0       	rjmp	.+86     	; 0x72 <__bad_interrupt>
      1c:	2a c0       	rjmp	.+84     	; 0x72 <__bad_interrupt>
      1e:	29 c0       	rjmp	.+82     	; 0x72 <__bad_interrupt>
      20:	28 c0       	rjmp	.+80     	; 0x72 <__bad_interrupt>
      22:	27 c0       	rjmp	.+78     	; 0x72 <__bad_interrupt>
      24:	26 c0       	rjmp	.+76     	; 0x72 <__bad_interrupt>

00000026 <__ctors_start>:
      26:	65 02       	muls	r22, r21

00000028 <__ctors_end>:
      28:	11 24       	eor	r1, r1
      2a:	1f be       	out	0x3f, r1	; 63
      2c:	cf e5       	ldi	r28, 0x5F	; 95
      2e:	d4 e0       	ldi	r29, 0x04	; 4
      30:	de bf       	out	0x3e, r29	; 62
      32:	cd bf       	out	0x3d, r28	; 61

00000034 <__do_copy_data>:
      34:	10 e0       	ldi	r17, 0x00	; 0
      36:	a0 e6       	ldi	r26, 0x60	; 96
      38:	b0 e0       	ldi	r27, 0x00	; 0
      3a:	e6 eb       	ldi	r30, 0xB6	; 182
      3c:	ff e1       	ldi	r31, 0x1F	; 31
      3e:	02 c0       	rjmp	.+4      	; 0x44 <__SREG__+0x5>
      40:	05 90       	lpm	r0, Z+
      42:	0d 92       	st	X+, r0
      44:	a6 3a       	cpi	r26, 0xA6	; 166
      46:	b1 07       	cpc	r27, r17
      48:	d9 f7       	brne	.-10     	; 0x40 <__SREG__+0x1>

0000004a <__do_clear_bss>:
      4a:	23 e0       	ldi	r18, 0x03	; 3
      4c:	a6 ea       	ldi	r26, 0xA6	; 166
      4e:	b0 e0       	ldi	r27, 0x00	; 0
      50:	01 c0       	rjmp	.+2      	; 0x54 <.do_clear_bss_start>

00000052 <.do_clear_bss_loop>:
      52:	1d 92       	st	X+, r1

00000054 <.do_clear_bss_start>:
      54:	a1 39       	cpi	r26, 0x91	; 145
      56:	b2 07       	cpc	r27, r18
      58:	e1 f7       	brne	.-8      	; 0x52 <.do_clear_bss_loop>

0000005a <__do_global_ctors>:
      5a:	10 e0       	ldi	r17, 0x00	; 0
      5c:	c4 e1       	ldi	r28, 0x14	; 20
      5e:	d0 e0       	ldi	r29, 0x00	; 0
      60:	03 c0       	rjmp	.+6      	; 0x68 <__do_global_ctors+0xe>
      62:	21 97       	sbiw	r28, 0x01	; 1
      64:	fe 01       	movw	r30, r28
      66:	bf dc       	rcall	.-1666   	; 0xfffff9e6 <__eeprom_end+0xff7ef826>
      68:	c3 31       	cpi	r28, 0x13	; 19
      6a:	d1 07       	cpc	r29, r17
      6c:	d1 f7       	brne	.-12     	; 0x62 <__do_global_ctors+0x8>
      6e:	0f d2       	rcall	.+1054   	; 0x48e <main>
      70:	a0 cf       	rjmp	.-192    	; 0xffffffb2 <__eeprom_end+0xff7efdf2>

00000072 <__bad_interrupt>:
      72:	c6 cf       	rjmp	.-116    	; 0x0 <__vectors>

00000074 <_Z5Setupv>:
	(*denoised_arr_len) = _denoised_arr_len;
	if(_denoised_arr_len)
	return sum / _denoised_arr_len;
	else
	return 0;
}
      74:	cf 93       	push	r28
      76:	df 93       	push	r29
      78:	cd b7       	in	r28, 0x3d	; 61
      7a:	de b7       	in	r29, 0x3e	; 62
      7c:	28 97       	sbiw	r28, 0x08	; 8
      7e:	0f b6       	in	r0, 0x3f	; 63
      80:	f8 94       	cli
      82:	de bf       	out	0x3e, r29	; 62
      84:	0f be       	out	0x3f, r0	; 63
      86:	cd bf       	out	0x3d, r28	; 61
      88:	64 ed       	ldi	r22, 0xD4	; 212
      8a:	85 e7       	ldi	r24, 0x75	; 117
      8c:	91 e0       	ldi	r25, 0x01	; 1
      8e:	b5 d7       	rcall	.+3946   	; 0xffa <_ZN5SERVO6AttachEh>
      90:	63 ed       	ldi	r22, 0xD3	; 211
      92:	8c e6       	ldi	r24, 0x6C	; 108
      94:	91 e0       	ldi	r25, 0x01	; 1
      96:	b1 d7       	rcall	.+3938   	; 0xffa <_ZN5SERVO6AttachEh>
      98:	41 ec       	ldi	r20, 0xC1	; 193
      9a:	62 ec       	ldi	r22, 0xC2	; 194
      9c:	8a e6       	ldi	r24, 0x6A	; 106
      9e:	91 e0       	ldi	r25, 0x01	; 1
      a0:	0c d8       	rcall	.-4072   	; 0xfffff0ba <__eeprom_end+0xff7eeefa>
      a2:	88 e0       	ldi	r24, 0x08	; 8
      a4:	e5 e6       	ldi	r30, 0x65	; 101
      a6:	f0 e0       	ldi	r31, 0x00	; 0
      a8:	de 01       	movw	r26, r28
      aa:	11 96       	adiw	r26, 0x01	; 1
      ac:	01 90       	ld	r0, Z+
      ae:	0d 92       	st	X+, r0
      b0:	8a 95       	dec	r24
      b2:	e1 f7       	brne	.-8      	; 0xac <_Z5Setupv+0x38>
      b4:	be 01       	movw	r22, r28
      b6:	6f 5f       	subi	r22, 0xFF	; 255
      b8:	7f 4f       	sbci	r23, 0xFF	; 255
      ba:	82 e6       	ldi	r24, 0x62	; 98
      bc:	91 e0       	ldi	r25, 0x01	; 1
      be:	0e d2       	rcall	.+1052   	; 0x4dc <_ZN12BUTTONMATRIX6AttachEPh>
      c0:	cb d3       	rcall	.+1942   	; 0x858 <_Z7OP_Initv>
      c2:	40 e0       	ldi	r20, 0x00	; 0
      c4:	54 e2       	ldi	r21, 0x24	; 36
      c6:	64 ef       	ldi	r22, 0xF4	; 244
      c8:	70 e0       	ldi	r23, 0x00	; 0
      ca:	80 e8       	ldi	r24, 0x80	; 128
      cc:	95 e2       	ldi	r25, 0x25	; 37
      ce:	cf d2       	rcall	.+1438   	; 0x66e <_Z10USART_Initjm>
      d0:	28 96       	adiw	r28, 0x08	; 8
      d2:	0f b6       	in	r0, 0x3f	; 63
      d4:	f8 94       	cli
      d6:	de bf       	out	0x3e, r29	; 62
      d8:	0f be       	out	0x3f, r0	; 63
      da:	cd bf       	out	0x3d, r28	; 61
      dc:	df 91       	pop	r29
      de:	cf 91       	pop	r28
      e0:	08 95       	ret

000000e2 <_Z8Radar_3Dv>:
      e2:	2f 92       	push	r2
      e4:	3f 92       	push	r3
      e6:	4f 92       	push	r4
      e8:	5f 92       	push	r5
      ea:	6f 92       	push	r6
      ec:	7f 92       	push	r7
      ee:	8f 92       	push	r8
      f0:	9f 92       	push	r9
      f2:	af 92       	push	r10
      f4:	bf 92       	push	r11
      f6:	cf 92       	push	r12
      f8:	df 92       	push	r13
      fa:	ef 92       	push	r14
      fc:	ff 92       	push	r15
      fe:	0f 93       	push	r16
     100:	1f 93       	push	r17
     102:	cf 93       	push	r28
     104:	df 93       	push	r29
     106:	cd b7       	in	r28, 0x3d	; 61
     108:	de b7       	in	r29, 0x3e	; 62
     10a:	a8 97       	sbiw	r28, 0x28	; 40
     10c:	0f b6       	in	r0, 0x3f	; 63
     10e:	f8 94       	cli
     110:	de bf       	out	0x3e, r29	; 62
     112:	0f be       	out	0x3f, r0	; 63
     114:	cd bf       	out	0x3d, r28	; 61
     116:	94 d3       	rcall	.+1832   	; 0x840 <_Z8OP_Clearv>
     118:	d3 d4       	rcall	.+2470   	; 0xac0 <_Z9OP_Updatev>
     11a:	00 e0       	ldi	r16, 0x00	; 0
     11c:	10 e0       	ldi	r17, 0x00	; 0
     11e:	9d e6       	ldi	r25, 0x6D	; 109
     120:	49 2e       	mov	r4, r25
     122:	90 e0       	ldi	r25, 0x00	; 0
     124:	59 2e       	mov	r5, r25
     126:	ce 01       	movw	r24, r28
     128:	01 96       	adiw	r24, 0x01	; 1
     12a:	6c 01       	movw	r12, r24
     12c:	60 2f       	mov	r22, r16
     12e:	85 e7       	ldi	r24, 0x75	; 117
     130:	91 e0       	ldi	r25, 0x01	; 1
     132:	78 d7       	rcall	.+3824   	; 0x1024 <_ZN5SERVO6SetPosEh>
     134:	c8 01       	movw	r24, r16
     136:	63 e0       	ldi	r22, 0x03	; 3
     138:	70 e0       	ldi	r23, 0x00	; 0
     13a:	e8 db       	rcall	.-2096   	; 0xfffff90c <__eeprom_end+0xff7ef74c>
     13c:	3b 01       	movw	r6, r22
     13e:	91 e0       	ldi	r25, 0x01	; 1
     140:	69 22       	and	r6, r25
     142:	77 24       	eor	r7, r7
     144:	e1 2c       	mov	r14, r1
     146:	f1 2c       	mov	r15, r1
     148:	61 14       	cp	r6, r1
     14a:	71 04       	cpc	r7, r1
     14c:	39 f0       	breq	.+14     	; 0x15c <_Z8Radar_3Dv+0x7a>
     14e:	84 eb       	ldi	r24, 0xB4	; 180
     150:	90 e0       	ldi	r25, 0x00	; 0
     152:	8e 19       	sub	r24, r14
     154:	9f 09       	sbc	r25, r15
     156:	38 2e       	mov	r3, r24
     158:	29 2e       	mov	r2, r25
     15a:	02 c0       	rjmp	.+4      	; 0x160 <_Z8Radar_3Dv+0x7e>
     15c:	3e 2c       	mov	r3, r14
     15e:	2f 2c       	mov	r2, r15
     160:	63 2d       	mov	r22, r3
     162:	8c e6       	ldi	r24, 0x6C	; 108
     164:	91 e0       	ldi	r25, 0x01	; 1
     166:	5e d7       	rcall	.+3772   	; 0x1024 <_ZN5SERVO6SetPosEh>
     168:	8a e0       	ldi	r24, 0x0A	; 10
     16a:	88 2e       	mov	r8, r24
     16c:	91 2c       	mov	r9, r1
     16e:	a1 2c       	mov	r10, r1
     170:	b1 2c       	mov	r11, r1
     172:	8a e6       	ldi	r24, 0x6A	; 106
     174:	91 e0       	ldi	r25, 0x01	; 1
     176:	ad d7       	rcall	.+3930   	; 0x10d2 <_ZN10ULTRASONIC11GetDistanceEv>
     178:	a8 0e       	add	r10, r24
     17a:	b9 1e       	adc	r11, r25
     17c:	81 e0       	ldi	r24, 0x01	; 1
     17e:	88 1a       	sub	r8, r24
     180:	91 08       	sbc	r9, r1
     182:	b9 f7       	brne	.-18     	; 0x172 <_Z8Radar_3Dv+0x90>
     184:	c5 01       	movw	r24, r10
     186:	6a e0       	ldi	r22, 0x0A	; 10
     188:	70 e0       	ldi	r23, 0x00	; 0
     18a:	ac db       	rcall	.-2216   	; 0xfffff8e4 <__eeprom_end+0xff7ef724>
     18c:	7f 93       	push	r23
     18e:	6f 93       	push	r22
     190:	2f 92       	push	r2
     192:	3f 92       	push	r3
     194:	1f 93       	push	r17
     196:	0f 93       	push	r16
     198:	5f 92       	push	r5
     19a:	4f 92       	push	r4
     19c:	df 92       	push	r13
     19e:	cf 92       	push	r12
     1a0:	28 dc       	rcall	.-1968   	; 0xfffff9f2 <__eeprom_end+0xff7ef832>
     1a2:	f6 01       	movw	r30, r12
     1a4:	01 90       	ld	r0, Z+
     1a6:	00 20       	and	r0, r0
     1a8:	e9 f7       	brne	.-6      	; 0x1a4 <_Z8Radar_3Dv+0xc2>
     1aa:	31 97       	sbiw	r30, 0x01	; 1
     1ac:	bf 01       	movw	r22, r30
     1ae:	6c 19       	sub	r22, r12
     1b0:	7d 09       	sbc	r23, r13
     1b2:	c6 01       	movw	r24, r12
     1b4:	78 d2       	rcall	.+1264   	; 0x6a6 <_Z17USART_WriteStringPKci>
     1b6:	8f e3       	ldi	r24, 0x3F	; 63
     1b8:	9c e9       	ldi	r25, 0x9C	; 156
     1ba:	01 97       	sbiw	r24, 0x01	; 1
     1bc:	f1 f7       	brne	.-4      	; 0x1ba <_Z8Radar_3Dv+0xd8>
     1be:	00 c0       	rjmp	.+0      	; 0x1c0 <_Z8Radar_3Dv+0xde>
     1c0:	00 00       	nop
     1c2:	93 e0       	ldi	r25, 0x03	; 3
     1c4:	e9 0e       	add	r14, r25
     1c6:	f1 1c       	adc	r15, r1
     1c8:	0f b6       	in	r0, 0x3f	; 63
     1ca:	f8 94       	cli
     1cc:	de bf       	out	0x3e, r29	; 62
     1ce:	0f be       	out	0x3f, r0	; 63
     1d0:	cd bf       	out	0x3d, r28	; 61
     1d2:	97 eb       	ldi	r25, 0xB7	; 183
     1d4:	e9 16       	cp	r14, r25
     1d6:	f1 04       	cpc	r15, r1
     1d8:	09 f0       	breq	.+2      	; 0x1dc <_Z8Radar_3Dv+0xfa>
     1da:	b6 cf       	rjmp	.-148    	; 0x148 <_Z8Radar_3Dv+0x66>
     1dc:	0d 5f       	subi	r16, 0xFD	; 253
     1de:	1f 4f       	sbci	r17, 0xFF	; 255
     1e0:	07 3b       	cpi	r16, 0xB7	; 183
     1e2:	11 05       	cpc	r17, r1
     1e4:	09 f0       	breq	.+2      	; 0x1e8 <_Z8Radar_3Dv+0x106>
     1e6:	a2 cf       	rjmp	.-188    	; 0x12c <_Z8Radar_3Dv+0x4a>
     1e8:	a8 96       	adiw	r28, 0x28	; 40
     1ea:	0f b6       	in	r0, 0x3f	; 63
     1ec:	f8 94       	cli
     1ee:	de bf       	out	0x3e, r29	; 62
     1f0:	0f be       	out	0x3f, r0	; 63
     1f2:	cd bf       	out	0x3d, r28	; 61
     1f4:	df 91       	pop	r29
     1f6:	cf 91       	pop	r28
     1f8:	1f 91       	pop	r17
     1fa:	0f 91       	pop	r16
     1fc:	ff 90       	pop	r15
     1fe:	ef 90       	pop	r14
     200:	df 90       	pop	r13
     202:	cf 90       	pop	r12
     204:	bf 90       	pop	r11
     206:	af 90       	pop	r10
     208:	9f 90       	pop	r9
     20a:	8f 90       	pop	r8
     20c:	7f 90       	pop	r7
     20e:	6f 90       	pop	r6
     210:	5f 90       	pop	r5
     212:	4f 90       	pop	r4
     214:	3f 90       	pop	r3
     216:	2f 90       	pop	r2
     218:	08 95       	ret

0000021a <_Z8Radar_2Dv>:
     21a:	6f 92       	push	r6
     21c:	7f 92       	push	r7
     21e:	8f 92       	push	r8
     220:	9f 92       	push	r9
     222:	af 92       	push	r10
     224:	bf 92       	push	r11
     226:	cf 92       	push	r12
     228:	df 92       	push	r13
     22a:	ef 92       	push	r14
     22c:	ff 92       	push	r15
     22e:	0f 93       	push	r16
     230:	1f 93       	push	r17
     232:	cf 93       	push	r28
     234:	df 93       	push	r29
     236:	04 d3       	rcall	.+1544   	; 0x840 <_Z8OP_Clearv>
     238:	41 e0       	ldi	r20, 0x01	; 1
     23a:	60 e0       	ldi	r22, 0x00	; 0
     23c:	80 e2       	ldi	r24, 0x20	; 32
     23e:	48 d4       	rcall	.+2192   	; 0xad0 <_Z11OP_PutPixelhhh>
     240:	3f d4       	rcall	.+2174   	; 0xac0 <_Z9OP_Updatev>
     242:	c0 e0       	ldi	r28, 0x00	; 0
     244:	d0 e0       	ldi	r29, 0x00	; 0
     246:	94 e1       	ldi	r25, 0x14	; 20
     248:	e9 2e       	mov	r14, r25
     24a:	f1 2c       	mov	r15, r1
     24c:	6c 2f       	mov	r22, r28
     24e:	85 e7       	ldi	r24, 0x75	; 117
     250:	91 e0       	ldi	r25, 0x01	; 1
     252:	e8 d6       	rcall	.+3536   	; 0x1024 <_ZN5SERVO6SetPosEh>
     254:	84 e1       	ldi	r24, 0x14	; 20
     256:	c8 2e       	mov	r12, r24
     258:	d1 2c       	mov	r13, r1
     25a:	00 e0       	ldi	r16, 0x00	; 0
     25c:	10 e0       	ldi	r17, 0x00	; 0
     25e:	8a e6       	ldi	r24, 0x6A	; 106
     260:	91 e0       	ldi	r25, 0x01	; 1
     262:	37 d7       	rcall	.+3694   	; 0x10d2 <_ZN10ULTRASONIC11GetDistanceEv>
     264:	08 0f       	add	r16, r24
     266:	19 1f       	adc	r17, r25
     268:	21 e0       	ldi	r18, 0x01	; 1
     26a:	c2 1a       	sub	r12, r18
     26c:	d1 08       	sbc	r13, r1
     26e:	b9 f7       	brne	.-18     	; 0x25e <_Z8Radar_2Dv+0x44>
     270:	c8 01       	movw	r24, r16
     272:	b7 01       	movw	r22, r14
     274:	37 db       	rcall	.-2450   	; 0xfffff8e4 <__eeprom_end+0xff7ef724>
     276:	cb 01       	movw	r24, r22
     278:	8e 01       	movw	r16, r28
     27a:	0e 7f       	andi	r16, 0xFE	; 254
     27c:	f8 01       	movw	r30, r16
     27e:	e6 55       	subi	r30, 0x56	; 86
     280:	ff 4f       	sbci	r31, 0xFF	; 255
     282:	71 83       	std	Z+1, r23	; 0x01
     284:	60 83       	st	Z, r22
     286:	60 91 60 01 	lds	r22, 0x0160	; 0x800160 <max_distance>
     28a:	70 91 61 01 	lds	r23, 0x0161	; 0x800161 <max_distance+0x1>
     28e:	68 17       	cp	r22, r24
     290:	79 07       	cpc	r23, r25
     292:	08 f4       	brcc	.+2      	; 0x296 <_Z8Radar_2Dv+0x7c>
     294:	bc 01       	movw	r22, r24
     296:	70 93 61 01 	sts	0x0161, r23	; 0x800161 <max_distance+0x1>
     29a:	60 93 60 01 	sts	0x0160, r22	; 0x800160 <max_distance>
     29e:	80 e0       	ldi	r24, 0x00	; 0
     2a0:	90 e0       	ldi	r25, 0x00	; 0
     2a2:	0b da       	rcall	.-3050   	; 0xfffff6ba <__eeprom_end+0xff7ef4fa>
     2a4:	9b 01       	movw	r18, r22
     2a6:	ac 01       	movw	r20, r24
     2a8:	60 e0       	ldi	r22, 0x00	; 0
     2aa:	70 e0       	ldi	r23, 0x00	; 0
     2ac:	88 ef       	ldi	r24, 0xF8	; 248
     2ae:	91 e4       	ldi	r25, 0x41	; 65
     2b0:	70 d9       	rcall	.-3360   	; 0xfffff592 <__eeprom_end+0xff7ef3d2>
     2b2:	5b 01       	movw	r10, r22
     2b4:	6c 01       	movw	r12, r24
     2b6:	60 90 60 00 	lds	r6, 0x0060	; 0x800060 <__DATA_REGION_ORIGIN__>
     2ba:	70 90 61 00 	lds	r7, 0x0061	; 0x800061 <__DATA_REGION_ORIGIN__+0x1>
     2be:	80 90 62 00 	lds	r8, 0x0062	; 0x800062 <__DATA_REGION_ORIGIN__+0x2>
     2c2:	90 90 63 00 	lds	r9, 0x0063	; 0x800063 <__DATA_REGION_ORIGIN__+0x3>
     2c6:	93 01       	movw	r18, r6
     2c8:	a4 01       	movw	r20, r8
     2ca:	5f d9       	rcall	.-3394   	; 0xfffff58a <__eeprom_end+0xff7ef3ca>
     2cc:	87 fd       	sbrc	r24, 7
     2ce:	02 c0       	rjmp	.+4      	; 0x2d4 <_Z8Radar_2Dv+0xba>
     2d0:	53 01       	movw	r10, r6
     2d2:	64 01       	movw	r12, r8
     2d4:	c5 01       	movw	r24, r10
     2d6:	d6 01       	movw	r26, r12
     2d8:	80 93 60 00 	sts	0x0060, r24	; 0x800060 <__DATA_REGION_ORIGIN__>
     2dc:	90 93 61 00 	sts	0x0061, r25	; 0x800061 <__DATA_REGION_ORIGIN__+0x1>
     2e0:	a0 93 62 00 	sts	0x0062, r26	; 0x800062 <__DATA_REGION_ORIGIN__+0x2>
     2e4:	b0 93 63 00 	sts	0x0063, r27	; 0x800063 <__DATA_REGION_ORIGIN__+0x3>
     2e8:	20 91 a6 00 	lds	r18, 0x00A6	; 0x8000a6 <__data_end>
     2ec:	30 91 a7 00 	lds	r19, 0x00A7	; 0x8000a7 <__data_end+0x1>
     2f0:	40 91 a8 00 	lds	r20, 0x00A8	; 0x8000a8 <__data_end+0x2>
     2f4:	50 91 a9 00 	lds	r21, 0x00A9	; 0x8000a9 <__data_end+0x3>
     2f8:	b5 01       	movw	r22, r10
     2fa:	c6 01       	movw	r24, r12
     2fc:	46 d9       	rcall	.-3444   	; 0xfffff58a <__eeprom_end+0xff7ef3ca>
     2fe:	88 23       	and	r24, r24
     300:	09 f4       	brne	.+2      	; 0x304 <_Z8Radar_2Dv+0xea>
     302:	4d c0       	rjmp	.+154    	; 0x39e <_Z8Radar_2Dv+0x184>
     304:	9d d2       	rcall	.+1338   	; 0x840 <_Z8OP_Clearv>
     306:	41 e0       	ldi	r20, 0x01	; 1
     308:	60 e0       	ldi	r22, 0x00	; 0
     30a:	80 e2       	ldi	r24, 0x20	; 32
     30c:	e1 d3       	rcall	.+1986   	; 0xad0 <_Z11OP_PutPixelhhh>
     30e:	00 e0       	ldi	r16, 0x00	; 0
     310:	10 e0       	ldi	r17, 0x00	; 0
     312:	c8 01       	movw	r24, r16
     314:	94 d5       	rcall	.+2856   	; 0xe3e <_Z9quick_sini>
     316:	4b 01       	movw	r8, r22
     318:	5c 01       	movw	r10, r24
     31a:	c8 01       	movw	r24, r16
     31c:	8e 7f       	andi	r24, 0xFE	; 254
     31e:	fc 01       	movw	r30, r24
     320:	e6 55       	subi	r30, 0x56	; 86
     322:	ff 4f       	sbci	r31, 0xFF	; 255
     324:	6f 01       	movw	r12, r30
     326:	60 81       	ld	r22, Z
     328:	71 81       	ldd	r23, Z+1	; 0x01
     32a:	80 e0       	ldi	r24, 0x00	; 0
     32c:	90 e0       	ldi	r25, 0x00	; 0
     32e:	c5 d9       	rcall	.-3190   	; 0xfffff6ba <__eeprom_end+0xff7ef4fa>
     330:	a5 01       	movw	r20, r10
     332:	94 01       	movw	r18, r8
     334:	74 da       	rcall	.-2840   	; 0xfffff81e <__eeprom_end+0xff7ef65e>
     336:	20 91 60 00 	lds	r18, 0x0060	; 0x800060 <__DATA_REGION_ORIGIN__>
     33a:	30 91 61 00 	lds	r19, 0x0061	; 0x800061 <__DATA_REGION_ORIGIN__+0x1>
     33e:	40 91 62 00 	lds	r20, 0x0062	; 0x800062 <__DATA_REGION_ORIGIN__+0x2>
     342:	50 91 63 00 	lds	r21, 0x0063	; 0x800063 <__DATA_REGION_ORIGIN__+0x3>
     346:	6b da       	rcall	.-2858   	; 0xfffff81e <__eeprom_end+0xff7ef65e>
     348:	8c d9       	rcall	.-3304   	; 0xfffff662 <__eeprom_end+0xff7ef4a2>
     34a:	76 2e       	mov	r7, r22
     34c:	c8 01       	movw	r24, r16
     34e:	d1 d5       	rcall	.+2978   	; 0xef2 <_Z9quick_cosi>
     350:	4b 01       	movw	r8, r22
     352:	5c 01       	movw	r10, r24
     354:	f6 01       	movw	r30, r12
     356:	60 81       	ld	r22, Z
     358:	71 81       	ldd	r23, Z+1	; 0x01
     35a:	80 e0       	ldi	r24, 0x00	; 0
     35c:	90 e0       	ldi	r25, 0x00	; 0
     35e:	ad d9       	rcall	.-3238   	; 0xfffff6ba <__eeprom_end+0xff7ef4fa>
     360:	a5 01       	movw	r20, r10
     362:	94 01       	movw	r18, r8
     364:	5c da       	rcall	.-2888   	; 0xfffff81e <__eeprom_end+0xff7ef65e>
     366:	20 91 60 00 	lds	r18, 0x0060	; 0x800060 <__DATA_REGION_ORIGIN__>
     36a:	30 91 61 00 	lds	r19, 0x0061	; 0x800061 <__DATA_REGION_ORIGIN__+0x1>
     36e:	40 91 62 00 	lds	r20, 0x0062	; 0x800062 <__DATA_REGION_ORIGIN__+0x2>
     372:	50 91 63 00 	lds	r21, 0x0063	; 0x800063 <__DATA_REGION_ORIGIN__+0x3>
     376:	53 da       	rcall	.-2906   	; 0xfffff81e <__eeprom_end+0xff7ef65e>
     378:	9b 01       	movw	r18, r22
     37a:	ac 01       	movw	r20, r24
     37c:	60 e0       	ldi	r22, 0x00	; 0
     37e:	70 e0       	ldi	r23, 0x00	; 0
     380:	80 e0       	ldi	r24, 0x00	; 0
     382:	92 e4       	ldi	r25, 0x42	; 66
     384:	9d d8       	rcall	.-3782   	; 0xfffff4c0 <__eeprom_end+0xff7ef300>
     386:	6d d9       	rcall	.-3366   	; 0xfffff662 <__eeprom_end+0xff7ef4a2>
     388:	86 2f       	mov	r24, r22
     38a:	41 e0       	ldi	r20, 0x01	; 1
     38c:	67 2d       	mov	r22, r7
     38e:	a0 d3       	rcall	.+1856   	; 0xad0 <_Z11OP_PutPixelhhh>
     390:	0e 5f       	subi	r16, 0xFE	; 254
     392:	1f 4f       	sbci	r17, 0xFF	; 255
     394:	c0 17       	cp	r28, r16
     396:	d1 07       	cpc	r29, r17
     398:	0c f0       	brlt	.+2      	; 0x39c <_Z8Radar_2Dv+0x182>
     39a:	bb cf       	rjmp	.-138    	; 0x312 <_Z8Radar_2Dv+0xf8>
     39c:	3c c0       	rjmp	.+120    	; 0x416 <__LOCK_REGION_LENGTH__+0x16>
     39e:	ce 01       	movw	r24, r28
     3a0:	4e d5       	rcall	.+2716   	; 0xe3e <_Z9quick_sini>
     3a2:	4b 01       	movw	r8, r22
     3a4:	5c 01       	movw	r10, r24
     3a6:	06 55       	subi	r16, 0x56	; 86
     3a8:	1f 4f       	sbci	r17, 0xFF	; 255
     3aa:	f8 01       	movw	r30, r16
     3ac:	60 81       	ld	r22, Z
     3ae:	71 81       	ldd	r23, Z+1	; 0x01
     3b0:	80 e0       	ldi	r24, 0x00	; 0
     3b2:	90 e0       	ldi	r25, 0x00	; 0
     3b4:	82 d9       	rcall	.-3324   	; 0xfffff6ba <__eeprom_end+0xff7ef4fa>
     3b6:	a5 01       	movw	r20, r10
     3b8:	94 01       	movw	r18, r8
     3ba:	31 da       	rcall	.-2974   	; 0xfffff81e <__eeprom_end+0xff7ef65e>
     3bc:	20 91 60 00 	lds	r18, 0x0060	; 0x800060 <__DATA_REGION_ORIGIN__>
     3c0:	30 91 61 00 	lds	r19, 0x0061	; 0x800061 <__DATA_REGION_ORIGIN__+0x1>
     3c4:	40 91 62 00 	lds	r20, 0x0062	; 0x800062 <__DATA_REGION_ORIGIN__+0x2>
     3c8:	50 91 63 00 	lds	r21, 0x0063	; 0x800063 <__DATA_REGION_ORIGIN__+0x3>
     3cc:	28 da       	rcall	.-2992   	; 0xfffff81e <__eeprom_end+0xff7ef65e>
     3ce:	49 d9       	rcall	.-3438   	; 0xfffff662 <__eeprom_end+0xff7ef4a2>
     3d0:	d6 2e       	mov	r13, r22
     3d2:	ce 01       	movw	r24, r28
     3d4:	8e d5       	rcall	.+2844   	; 0xef2 <_Z9quick_cosi>
     3d6:	4b 01       	movw	r8, r22
     3d8:	5c 01       	movw	r10, r24
     3da:	f8 01       	movw	r30, r16
     3dc:	60 81       	ld	r22, Z
     3de:	71 81       	ldd	r23, Z+1	; 0x01
     3e0:	80 e0       	ldi	r24, 0x00	; 0
     3e2:	90 e0       	ldi	r25, 0x00	; 0
     3e4:	6a d9       	rcall	.-3372   	; 0xfffff6ba <__eeprom_end+0xff7ef4fa>
     3e6:	a5 01       	movw	r20, r10
     3e8:	94 01       	movw	r18, r8
     3ea:	19 da       	rcall	.-3022   	; 0xfffff81e <__eeprom_end+0xff7ef65e>
     3ec:	20 91 60 00 	lds	r18, 0x0060	; 0x800060 <__DATA_REGION_ORIGIN__>
     3f0:	30 91 61 00 	lds	r19, 0x0061	; 0x800061 <__DATA_REGION_ORIGIN__+0x1>
     3f4:	40 91 62 00 	lds	r20, 0x0062	; 0x800062 <__DATA_REGION_ORIGIN__+0x2>
     3f8:	50 91 63 00 	lds	r21, 0x0063	; 0x800063 <__DATA_REGION_ORIGIN__+0x3>
     3fc:	10 da       	rcall	.-3040   	; 0xfffff81e <__eeprom_end+0xff7ef65e>
     3fe:	9b 01       	movw	r18, r22
     400:	ac 01       	movw	r20, r24
     402:	60 e0       	ldi	r22, 0x00	; 0
     404:	70 e0       	ldi	r23, 0x00	; 0
     406:	80 e0       	ldi	r24, 0x00	; 0
     408:	92 e4       	ldi	r25, 0x42	; 66
     40a:	5a d8       	rcall	.-3916   	; 0xfffff4c0 <__eeprom_end+0xff7ef300>
     40c:	2a d9       	rcall	.-3500   	; 0xfffff662 <__eeprom_end+0xff7ef4a2>
     40e:	86 2f       	mov	r24, r22
     410:	41 e0       	ldi	r20, 0x01	; 1
     412:	6d 2d       	mov	r22, r13
     414:	5d d3       	rcall	.+1722   	; 0xad0 <_Z11OP_PutPixelhhh>
     416:	54 d3       	rcall	.+1704   	; 0xac0 <_Z9OP_Updatev>
     418:	80 91 60 00 	lds	r24, 0x0060	; 0x800060 <__DATA_REGION_ORIGIN__>
     41c:	90 91 61 00 	lds	r25, 0x0061	; 0x800061 <__DATA_REGION_ORIGIN__+0x1>
     420:	a0 91 62 00 	lds	r26, 0x0062	; 0x800062 <__DATA_REGION_ORIGIN__+0x2>
     424:	b0 91 63 00 	lds	r27, 0x0063	; 0x800063 <__DATA_REGION_ORIGIN__+0x3>
     428:	80 93 a6 00 	sts	0x00A6, r24	; 0x8000a6 <__data_end>
     42c:	90 93 a7 00 	sts	0x00A7, r25	; 0x8000a7 <__data_end+0x1>
     430:	a0 93 a8 00 	sts	0x00A8, r26	; 0x8000a8 <__data_end+0x2>
     434:	b0 93 a9 00 	sts	0x00A9, r27	; 0x8000a9 <__data_end+0x3>
     438:	8f e3       	ldi	r24, 0x3F	; 63
     43a:	9c e9       	ldi	r25, 0x9C	; 156
     43c:	01 97       	sbiw	r24, 0x01	; 1
     43e:	f1 f7       	brne	.-4      	; 0x43c <__LOCK_REGION_LENGTH__+0x3c>
     440:	00 c0       	rjmp	.+0      	; 0x442 <__LOCK_REGION_LENGTH__+0x42>
     442:	00 00       	nop
     444:	22 96       	adiw	r28, 0x02	; 2
     446:	c6 3b       	cpi	r28, 0xB6	; 182
     448:	d1 05       	cpc	r29, r1
     44a:	09 f0       	breq	.+2      	; 0x44e <__LOCK_REGION_LENGTH__+0x4e>
     44c:	ff ce       	rjmp	.-514    	; 0x24c <_Z8Radar_2Dv+0x32>
     44e:	df 91       	pop	r29
     450:	cf 91       	pop	r28
     452:	1f 91       	pop	r17
     454:	0f 91       	pop	r16
     456:	ff 90       	pop	r15
     458:	ef 90       	pop	r14
     45a:	df 90       	pop	r13
     45c:	cf 90       	pop	r12
     45e:	bf 90       	pop	r11
     460:	af 90       	pop	r10
     462:	9f 90       	pop	r9
     464:	8f 90       	pop	r8
     466:	7f 90       	pop	r7
     468:	6f 90       	pop	r6
     46a:	08 95       	ret

0000046c <_Z8ShowMenuv>:

void ShowMenu()
{
     46c:	0f 93       	push	r16
	OP_Clear();
     46e:	e8 d1       	rcall	.+976    	; 0x840 <_Z8OP_Clearv>
	OP_TextOut(4, 4, "1 2Dradar", 9, 1);
     470:	01 e0       	ldi	r16, 0x01	; 1
     472:	29 e0       	ldi	r18, 0x09	; 9
     474:	41 e9       	ldi	r20, 0x91	; 145
     476:	50 e0       	ldi	r21, 0x00	; 0
     478:	64 e0       	ldi	r22, 0x04	; 4
     47a:	84 e0       	ldi	r24, 0x04	; 4
     47c:	2a d3       	rcall	.+1620   	; 0xad2 <_Z10OP_TextOuthhPKchh>
	OP_TextOut(4, 16, "2 3Dradar", 9, 1);
     47e:	29 e0       	ldi	r18, 0x09	; 9
     480:	4b e9       	ldi	r20, 0x9B	; 155
     482:	50 e0       	ldi	r21, 0x00	; 0
     484:	60 e1       	ldi	r22, 0x10	; 16
     486:	84 e0       	ldi	r24, 0x04	; 4
     488:	24 d3       	rcall	.+1608   	; 0xad2 <_Z10OP_TextOuthhPKchh>
	OP_Update();
     48a:	0f 91       	pop	r16
void ShowMenu()
{
	OP_Clear();
	OP_TextOut(4, 4, "1 2Dradar", 9, 1);
	OP_TextOut(4, 16, "2 3Dradar", 9, 1);
	OP_Update();
     48c:	19 c3       	rjmp	.+1586   	; 0xac0 <_Z9OP_Updatev>

0000048e <main>:
	USART_Init(CBR_9600, F_CPU);
}

int main(void)
{
	Setup();
     48e:	f2 dd       	rcall	.-1052   	; 0x74 <_Z5Setupv>
	
	while(1)
	{
		ShowMenu();
     490:	ed df       	rcall	.-38     	; 0x46c <_Z8ShowMenuv>
		
		servo_z.SetPos(0);
     492:	60 e0       	ldi	r22, 0x00	; 0
     494:	85 e7       	ldi	r24, 0x75	; 117
     496:	91 e0       	ldi	r25, 0x01	; 1
     498:	c5 d5       	rcall	.+2954   	; 0x1024 <_ZN5SERVO6SetPosEh>
		servo_r.SetPos(0);
     49a:	60 e0       	ldi	r22, 0x00	; 0
     49c:	8c e6       	ldi	r24, 0x6C	; 108
     49e:	91 e0       	ldi	r25, 0x01	; 1
     4a0:	c1 d5       	rcall	.+2946   	; 0x1024 <_ZN5SERVO6SetPosEh>
		
		int key;
		while(!(key = btnmat.GetKeyDown()));
     4a2:	82 e6       	ldi	r24, 0x62	; 98
     4a4:	91 e0       	ldi	r25, 0x01	; 1
     4a6:	44 d0       	rcall	.+136    	; 0x530 <_ZN12BUTTONMATRIX10GetKeyDownEv>
     4a8:	90 e0       	ldi	r25, 0x00	; 0
     4aa:	00 97       	sbiw	r24, 0x00	; 0
     4ac:	d1 f3       	breq	.-12     	; 0x4a2 <main+0x14>
		if(key == 1)
     4ae:	81 30       	cpi	r24, 0x01	; 1
     4b0:	91 05       	cpc	r25, r1
     4b2:	39 f4       	brne	.+14     	; 0x4c2 <main+0x34>
		{
			Radar_2D();
     4b4:	b2 de       	rcall	.-668    	; 0x21a <_Z8Radar_2Dv>
			while(!btnmat.GetKeyDown());
     4b6:	82 e6       	ldi	r24, 0x62	; 98
     4b8:	91 e0       	ldi	r25, 0x01	; 1
     4ba:	3a d0       	rcall	.+116    	; 0x530 <_ZN12BUTTONMATRIX10GetKeyDownEv>
     4bc:	88 23       	and	r24, r24
     4be:	d9 f3       	breq	.-10     	; 0x4b6 <main+0x28>
     4c0:	e7 cf       	rjmp	.-50     	; 0x490 <main+0x2>
		}
		else if(key == 2)
     4c2:	02 97       	sbiw	r24, 0x02	; 2
     4c4:	29 f7       	brne	.-54     	; 0x490 <main+0x2>
		{
			Radar_3D();
     4c6:	0d de       	rcall	.-998    	; 0xe2 <_Z8Radar_3Dv>
     4c8:	e3 cf       	rjmp	.-58     	; 0x490 <main+0x2>

000004ca <_GLOBAL__sub_I_servo_z>:
#include "OLED_Paint.h"
#include "quickmath.h"
#include "USART.h"
#include "btnmat.h"

SERVO servo_z, servo_r; // servo_z rotates around the z axis; servo_r rotates around the r vector
     4ca:	85 e7       	ldi	r24, 0x75	; 117
     4cc:	91 e0       	ldi	r25, 0x01	; 1
     4ce:	90 d5       	rcall	.+2848   	; 0xff0 <_ZN5SERVOC1Ev>
     4d0:	8c e6       	ldi	r24, 0x6C	; 108
     4d2:	91 e0       	ldi	r25, 0x01	; 1
     4d4:	8d d5       	rcall	.+2842   	; 0xff0 <_ZN5SERVOC1Ev>
ULTRASONIC ultrasonic;
     4d6:	8a e6       	ldi	r24, 0x6A	; 106
     4d8:	91 e0       	ldi	r25, 0x01	; 1
     4da:	ea c5       	rjmp	.+3028   	; 0x10b0 <_ZN10ULTRASONICC1Ev>

000004dc <_ZN12BUTTONMATRIX6AttachEPh>:
#define F_CPU 16000000UL
#include <util/delay.h>
#include "btnmat.h"

void BUTTONMATRIX::Attach(PINS pins[8])
{
     4dc:	ef 92       	push	r14
     4de:	ff 92       	push	r15
     4e0:	0f 93       	push	r16
     4e2:	1f 93       	push	r17
     4e4:	cf 93       	push	r28
     4e6:	df 93       	push	r29
     4e8:	8b 01       	movw	r16, r22
     4ea:	7b 01       	movw	r14, r22
     4ec:	28 e0       	ldi	r18, 0x08	; 8
     4ee:	e2 0e       	add	r14, r18
     4f0:	f1 1c       	adc	r15, r1
     4f2:	fb 01       	movw	r30, r22
	for(int p = 0; p < 8; p ++)
		this->pins[p] = pins[p];
     4f4:	21 91       	ld	r18, Z+
     4f6:	dc 01       	movw	r26, r24
     4f8:	2d 93       	st	X+, r18
     4fa:	cd 01       	movw	r24, r26
#include <util/delay.h>
#include "btnmat.h"

void BUTTONMATRIX::Attach(PINS pins[8])
{
	for(int p = 0; p < 8; p ++)
     4fc:	ee 15       	cp	r30, r14
     4fe:	ff 05       	cpc	r31, r15
     500:	c9 f7       	brne	.-14     	; 0x4f4 <_ZN12BUTTONMATRIX6AttachEPh+0x18>
     502:	eb 01       	movw	r28, r22
     504:	24 96       	adiw	r28, 0x04	; 4
		this->pins[p] = pins[p];
	for(int p = 0; p < 4; p ++)
		SetPinMode(pins[p], INPUT);
     506:	60 e0       	ldi	r22, 0x00	; 0
     508:	f8 01       	movw	r30, r16
     50a:	81 91       	ld	r24, Z+
     50c:	8f 01       	movw	r16, r30
     50e:	c1 d3       	rcall	.+1922   	; 0xc92 <_Z10SetPinModehb>

void BUTTONMATRIX::Attach(PINS pins[8])
{
	for(int p = 0; p < 8; p ++)
		this->pins[p] = pins[p];
	for(int p = 0; p < 4; p ++)
     510:	0c 17       	cp	r16, r28
     512:	1d 07       	cpc	r17, r29
     514:	c1 f7       	brne	.-16     	; 0x506 <_ZN12BUTTONMATRIX6AttachEPh+0x2a>
		SetPinMode(pins[p], INPUT);
	for(int p = 4; p < 8; p ++)
		SetPinMode(pins[p], OUTPUT);
     516:	61 e0       	ldi	r22, 0x01	; 1
     518:	89 91       	ld	r24, Y+
     51a:	bb d3       	rcall	.+1910   	; 0xc92 <_Z10SetPinModehb>
{
	for(int p = 0; p < 8; p ++)
		this->pins[p] = pins[p];
	for(int p = 0; p < 4; p ++)
		SetPinMode(pins[p], INPUT);
	for(int p = 4; p < 8; p ++)
     51c:	ce 15       	cp	r28, r14
     51e:	df 05       	cpc	r29, r15
     520:	d1 f7       	brne	.-12     	; 0x516 <_ZN12BUTTONMATRIX6AttachEPh+0x3a>
		SetPinMode(pins[p], OUTPUT);
}
     522:	df 91       	pop	r29
     524:	cf 91       	pop	r28
     526:	1f 91       	pop	r17
     528:	0f 91       	pop	r16
     52a:	ff 90       	pop	r15
     52c:	ef 90       	pop	r14
     52e:	08 95       	ret

00000530 <_ZN12BUTTONMATRIX10GetKeyDownEv>:

uint8_t BUTTONMATRIX::GetKeyDown()
{
     530:	6f 92       	push	r6
     532:	7f 92       	push	r7
     534:	8f 92       	push	r8
     536:	9f 92       	push	r9
     538:	af 92       	push	r10
     53a:	bf 92       	push	r11
     53c:	cf 92       	push	r12
     53e:	df 92       	push	r13
     540:	ef 92       	push	r14
     542:	ff 92       	push	r15
     544:	0f 93       	push	r16
     546:	1f 93       	push	r17
     548:	cf 93       	push	r28
     54a:	df 93       	push	r29
     54c:	6c 01       	movw	r12, r24
     54e:	ec 01       	movw	r28, r24
     550:	8c 01       	movw	r16, r24
     552:	08 5f       	subi	r16, 0xF8	; 248
     554:	1f 4f       	sbci	r17, 0xFF	; 255
	for(int p = 0; p < 8; p ++)
		DigitalWrite(this->pins[p], 1);
     556:	61 e0       	ldi	r22, 0x01	; 1
     558:	89 91       	ld	r24, Y+
     55a:	e3 d3       	rcall	.+1990   	; 0xd22 <_Z12DigitalWritehb>
		SetPinMode(pins[p], OUTPUT);
}

uint8_t BUTTONMATRIX::GetKeyDown()
{
	for(int p = 0; p < 8; p ++)
     55c:	c0 17       	cp	r28, r16
     55e:	d1 07       	cpc	r29, r17
     560:	d1 f7       	brne	.-12     	; 0x556 <_ZN12BUTTONMATRIX10GetKeyDownEv+0x26>
     562:	36 01       	movw	r6, r12
     564:	84 e0       	ldi	r24, 0x04	; 4
     566:	68 0e       	add	r6, r24
     568:	71 1c       	adc	r7, r1
     56a:	53 01       	movw	r10, r6
     56c:	c0 e0       	ldi	r28, 0x00	; 0
     56e:	d0 e0       	ldi	r29, 0x00	; 0
		DigitalWrite(this->pins[p], 1);
#define ReLU(x) (max(0, (x)))
	for(int row = 0; row < 4; row ++)
	{
		DigitalWrite(this->pins[ReLU(row - 1) + 4], 1);
     570:	84 e0       	ldi	r24, 0x04	; 4
     572:	e8 2e       	mov	r14, r24
     574:	f1 2c       	mov	r15, r1
     576:	f6 01       	movw	r30, r12
     578:	ee 0d       	add	r30, r14
     57a:	ff 1d       	adc	r31, r15
     57c:	61 e0       	ldi	r22, 0x01	; 1
     57e:	80 81       	ld	r24, Z
     580:	d0 d3       	rcall	.+1952   	; 0xd22 <_Z12DigitalWritehb>
     582:	7e 01       	movw	r14, r28
     584:	e4 e0       	ldi	r30, 0x04	; 4
     586:	ee 0e       	add	r14, r30
     588:	f1 1c       	adc	r15, r1
		DigitalWrite(this->pins[row + 4], 0);
     58a:	60 e0       	ldi	r22, 0x00	; 0
     58c:	f5 01       	movw	r30, r10
     58e:	81 91       	ld	r24, Z+
     590:	5f 01       	movw	r10, r30
     592:	c7 d3       	rcall	.+1934   	; 0xd22 <_Z12DigitalWritehb>
	#else
		//round up by default
		__ticks_dc = (uint32_t)(ceil(fabs(__tmp)));
	#endif

	__builtin_avr_delay_cycles(__ticks_dc);
     594:	fa e0       	ldi	r31, 0x0A	; 10
     596:	fa 95       	dec	r31
     598:	f1 f7       	brne	.-4      	; 0x596 <_ZN12BUTTONMATRIX10GetKeyDownEv+0x66>
     59a:	00 c0       	rjmp	.+0      	; 0x59c <_ZN12BUTTONMATRIX10GetKeyDownEv+0x6c>
     59c:	43 01       	movw	r8, r6
		_delay_us(2);
		for(int i = 1; i <= 4; i ++)
     59e:	01 e0       	ldi	r16, 0x01	; 1
     5a0:	10 e0       	ldi	r17, 0x00	; 0
		{
			if(DigitalRead(this->pins[4 - i]) == 0)
     5a2:	f4 01       	movw	r30, r8
     5a4:	82 91       	ld	r24, -Z
     5a6:	4f 01       	movw	r8, r30
     5a8:	04 d4       	rcall	.+2056   	; 0xdb2 <_Z11DigitalReadh>
     5aa:	81 11       	cpse	r24, r1
     5ac:	05 c0       	rjmp	.+10     	; 0x5b8 <_ZN12BUTTONMATRIX10GetKeyDownEv+0x88>
			{
				return row * 4 + i;
     5ae:	8c 2f       	mov	r24, r28
     5b0:	88 0f       	add	r24, r24
     5b2:	88 0f       	add	r24, r24
     5b4:	80 0f       	add	r24, r16
     5b6:	0e c0       	rjmp	.+28     	; 0x5d4 <_ZN12BUTTONMATRIX10GetKeyDownEv+0xa4>
	for(int row = 0; row < 4; row ++)
	{
		DigitalWrite(this->pins[ReLU(row - 1) + 4], 1);
		DigitalWrite(this->pins[row + 4], 0);
		_delay_us(2);
		for(int i = 1; i <= 4; i ++)
     5b8:	0f 5f       	subi	r16, 0xFF	; 255
     5ba:	1f 4f       	sbci	r17, 0xFF	; 255
     5bc:	05 30       	cpi	r16, 0x05	; 5
     5be:	11 05       	cpc	r17, r1
     5c0:	81 f7       	brne	.-32     	; 0x5a2 <_ZN12BUTTONMATRIX10GetKeyDownEv+0x72>
uint8_t BUTTONMATRIX::GetKeyDown()
{
	for(int p = 0; p < 8; p ++)
		DigitalWrite(this->pins[p], 1);
#define ReLU(x) (max(0, (x)))
	for(int row = 0; row < 4; row ++)
     5c2:	21 96       	adiw	r28, 0x01	; 1
     5c4:	c4 30       	cpi	r28, 0x04	; 4
     5c6:	d1 05       	cpc	r29, r1
     5c8:	21 f0       	breq	.+8      	; 0x5d2 <_ZN12BUTTONMATRIX10GetKeyDownEv+0xa2>
	{
		DigitalWrite(this->pins[ReLU(row - 1) + 4], 1);
     5ca:	c1 30       	cpi	r28, 0x01	; 1
     5cc:	d1 05       	cpc	r29, r1
     5ce:	99 f6       	brne	.-90     	; 0x576 <_ZN12BUTTONMATRIX10GetKeyDownEv+0x46>
     5d0:	cf cf       	rjmp	.-98     	; 0x570 <_ZN12BUTTONMATRIX10GetKeyDownEv+0x40>
			{
				return row * 4 + i;
			}
		}
	}
	return 0;
     5d2:	80 e0       	ldi	r24, 0x00	; 0
     5d4:	df 91       	pop	r29
     5d6:	cf 91       	pop	r28
     5d8:	1f 91       	pop	r17
     5da:	0f 91       	pop	r16
     5dc:	ff 90       	pop	r15
     5de:	ef 90       	pop	r14
     5e0:	df 90       	pop	r13
     5e2:	cf 90       	pop	r12
     5e4:	bf 90       	pop	r11
     5e6:	af 90       	pop	r10
     5e8:	9f 90       	pop	r9
     5ea:	8f 90       	pop	r8
     5ec:	7f 90       	pop	r7
     5ee:	6f 90       	pop	r6
     5f0:	08 95       	ret

000005f2 <_Z12GetP6x8ChDatch>:
	0x00, 0x7C, 0x08, 0x04, 0x04, 0x08,// r
};

unsigned char GetP6x8ChDat(char ch, unsigned char col)
{
	if(ch == ' ')
     5f2:	80 32       	cpi	r24, 0x20	; 32
     5f4:	c1 f1       	breq	.+112    	; 0x666 <_Z12GetP6x8ChDatch+0x74>
		return 0x00;
	if(ch >= '0' && ch <= '9')
     5f6:	90 ed       	ldi	r25, 0xD0	; 208
     5f8:	98 0f       	add	r25, r24
     5fa:	9a 30       	cpi	r25, 0x0A	; 10
     5fc:	78 f4       	brcc	.+30     	; 0x61c <_Z12GetP6x8ChDatch+0x2a>
		return eeprom_read_byte(&CharTab6x8[ch - '0'][col]);
     5fe:	28 2f       	mov	r18, r24
     600:	30 e0       	ldi	r19, 0x00	; 0
     602:	20 53       	subi	r18, 0x30	; 48
     604:	31 09       	sbc	r19, r1
     606:	46 e0       	ldi	r20, 0x06	; 6
     608:	42 9f       	mul	r20, r18
     60a:	c0 01       	movw	r24, r0
     60c:	43 9f       	mul	r20, r19
     60e:	90 0d       	add	r25, r0
     610:	11 24       	eor	r1, r1
     612:	86 0f       	add	r24, r22
     614:	91 1d       	adc	r25, r1
     616:	80 50       	subi	r24, 0x00	; 0
     618:	90 40       	sbci	r25, 0x00	; 0
     61a:	1c c0       	rjmp	.+56     	; 0x654 <_Z12GetP6x8ChDatch+0x62>
	switch (ch)
     61c:	81 36       	cpi	r24, 0x61	; 97
     61e:	89 f0       	breq	.+34     	; 0x642 <_Z12GetP6x8ChDatch+0x50>
     620:	38 f4       	brcc	.+14     	; 0x630 <_Z12GetP6x8ChDatch+0x3e>
     622:	84 34       	cpi	r24, 0x44	; 68
     624:	c1 f4       	brne	.+48     	; 0x656 <_Z12GetP6x8ChDatch+0x64>
	{
		case 'D':
		return eeprom_read_byte(&CharTab6x8[10][col]);
     626:	86 2f       	mov	r24, r22
     628:	90 e0       	ldi	r25, 0x00	; 0
     62a:	84 5c       	subi	r24, 0xC4	; 196
     62c:	9f 4f       	sbci	r25, 0xFF	; 255
     62e:	12 c0       	rjmp	.+36     	; 0x654 <_Z12GetP6x8ChDatch+0x62>
{
	if(ch == ' ')
		return 0x00;
	if(ch >= '0' && ch <= '9')
		return eeprom_read_byte(&CharTab6x8[ch - '0'][col]);
	switch (ch)
     630:	84 36       	cpi	r24, 0x64	; 100
     632:	61 f0       	breq	.+24     	; 0x64c <_Z12GetP6x8ChDatch+0x5a>
     634:	82 37       	cpi	r24, 0x72	; 114
     636:	79 f4       	brne	.+30     	; 0x656 <_Z12GetP6x8ChDatch+0x64>
		case 'a':
		return eeprom_read_byte(&CharTab6x8[11][col]);
		case 'd':
		return eeprom_read_byte(&CharTab6x8[12][col]);
		case 'r':
		return eeprom_read_byte(&CharTab6x8[13][col]);
     638:	86 2f       	mov	r24, r22
     63a:	90 e0       	ldi	r25, 0x00	; 0
     63c:	82 5b       	subi	r24, 0xB2	; 178
     63e:	9f 4f       	sbci	r25, 0xFF	; 255
     640:	09 c0       	rjmp	.+18     	; 0x654 <_Z12GetP6x8ChDatch+0x62>
	switch (ch)
	{
		case 'D':
		return eeprom_read_byte(&CharTab6x8[10][col]);
		case 'a':
		return eeprom_read_byte(&CharTab6x8[11][col]);
     642:	86 2f       	mov	r24, r22
     644:	90 e0       	ldi	r25, 0x00	; 0
     646:	8e 5b       	subi	r24, 0xBE	; 190
     648:	9f 4f       	sbci	r25, 0xFF	; 255
     64a:	04 c0       	rjmp	.+8      	; 0x654 <_Z12GetP6x8ChDatch+0x62>
		case 'd':
		return eeprom_read_byte(&CharTab6x8[12][col]);
     64c:	86 2f       	mov	r24, r22
     64e:	90 e0       	ldi	r25, 0x00	; 0
     650:	88 5b       	subi	r24, 0xB8	; 184
     652:	9f 4f       	sbci	r25, 0xFF	; 255
		case 'r':
		return eeprom_read_byte(&CharTab6x8[13][col]);
     654:	6f cc       	rjmp	.-1826   	; 0xffffff34 <__eeprom_end+0xff7efd74>
	}
	switch (col) 
     656:	64 30       	cpi	r22, 0x04	; 4
     658:	20 f4       	brcc	.+8      	; 0x662 <_Z12GetP6x8ChDatch+0x70>
     65a:	61 30       	cpi	r22, 0x01	; 1
     65c:	30 f0       	brcs	.+12     	; 0x66a <_Z12GetP6x8ChDatch+0x78>
	{
		case 0: case 4:			return 0x7f;
		case 1: case 2: case 3: return 0x41;
     65e:	81 e4       	ldi	r24, 0x41	; 65
     660:	08 95       	ret
		case 'd':
		return eeprom_read_byte(&CharTab6x8[12][col]);
		case 'r':
		return eeprom_read_byte(&CharTab6x8[13][col]);
	}
	switch (col) 
     662:	64 30       	cpi	r22, 0x04	; 4
     664:	11 f0       	breq	.+4      	; 0x66a <_Z12GetP6x8ChDatch+0x78>
};

unsigned char GetP6x8ChDat(char ch, unsigned char col)
{
	if(ch == ' ')
		return 0x00;
     666:	80 e0       	ldi	r24, 0x00	; 0
     668:	08 95       	ret
		case 'r':
		return eeprom_read_byte(&CharTab6x8[13][col]);
	}
	switch (col) 
	{
		case 0: case 4:			return 0x7f;
     66a:	8f e7       	ldi	r24, 0x7F	; 127
		case 1: case 2: case 3: return 0x41;
		default:				return 0x00;
	}
}
     66c:	08 95       	ret

0000066e <_Z10USART_Initjm>:
#include "USART.h"
#include <util/delay.h>


void USART_Init(uint16_t baudrate, uint32_t fosc)
{
     66e:	fc 01       	movw	r30, r24
	UCSRC = 0x80; //清空UCSRC
     670:	20 e8       	ldi	r18, 0x80	; 128
     672:	20 bd       	out	0x20, r18	; 32
	UBRRL = 0;//
     674:	19 b8       	out	0x09, r1	; 9
	UBRRL = fosc / 16 / baudrate - 1; // 103 : 9600bps ; Fosc = 16 MHz, BaudRate = 9600, UBBR = Fosc / 16 / BaudRate - 1 = 103
     676:	cb 01       	movw	r24, r22
     678:	ba 01       	movw	r22, r20
     67a:	24 e0       	ldi	r18, 0x04	; 4
     67c:	96 95       	lsr	r25
     67e:	87 95       	ror	r24
     680:	77 95       	ror	r23
     682:	67 95       	ror	r22
     684:	2a 95       	dec	r18
     686:	d1 f7       	brne	.-12     	; 0x67c <_Z10USART_Initjm+0xe>
     688:	9f 01       	movw	r18, r30
     68a:	40 e0       	ldi	r20, 0x00	; 0
     68c:	50 e0       	ldi	r21, 0x00	; 0
     68e:	51 d9       	rcall	.-3422   	; 0xfffff932 <__eeprom_end+0xff7ef772>
     690:	21 50       	subi	r18, 0x01	; 1
     692:	29 b9       	out	0x09, r18	; 9
	UCSRB = (1 << RXEN) | (1 << TXEN);//开启USART接收和发送
     694:	88 e1       	ldi	r24, 0x18	; 24
     696:	8a b9       	out	0x0a, r24	; 10
	UCSRC = (1 << URSEL) | (3 << UCSZ0);//异步,无校验,8位数据， 1位停止位,...
     698:	86 e8       	ldi	r24, 0x86	; 134
     69a:	80 bd       	out	0x20, r24	; 32
     69c:	08 95       	ret

0000069e <_Z15USART_WriteCharc>:
}

void USART_WriteChar(char c)
{
	while (!(UCSRA & (1 << UDRE)));
     69e:	5d 9b       	sbis	0x0b, 5	; 11
     6a0:	fe cf       	rjmp	.-4      	; 0x69e <_Z15USART_WriteCharc>
	UDR = c;
     6a2:	8c b9       	out	0x0c, r24	; 12
     6a4:	08 95       	ret

000006a6 <_Z17USART_WriteStringPKci>:
}

void USART_WriteString(const char str[], int len)
{
     6a6:	ef 92       	push	r14
     6a8:	ff 92       	push	r15
     6aa:	0f 93       	push	r16
     6ac:	1f 93       	push	r17
     6ae:	cf 93       	push	r28
     6b0:	df 93       	push	r29
     6b2:	8c 01       	movw	r16, r24
     6b4:	7b 01       	movw	r14, r22
     6b6:	ec 01       	movw	r28, r24
	for(int i = 0; i < len; i ++)
     6b8:	ce 01       	movw	r24, r28
     6ba:	80 1b       	sub	r24, r16
     6bc:	91 0b       	sbc	r25, r17
     6be:	8e 15       	cp	r24, r14
     6c0:	9f 05       	cpc	r25, r15
     6c2:	1c f4       	brge	.+6      	; 0x6ca <_Z17USART_WriteStringPKci+0x24>
	USART_WriteChar(str[i]);
     6c4:	89 91       	ld	r24, Y+
     6c6:	eb df       	rcall	.-42     	; 0x69e <_Z15USART_WriteCharc>
	UDR = c;
}

void USART_WriteString(const char str[], int len)
{
	for(int i = 0; i < len; i ++)
     6c8:	f7 cf       	rjmp	.-18     	; 0x6b8 <_Z17USART_WriteStringPKci+0x12>
	USART_WriteChar(str[i]);
}
     6ca:	df 91       	pop	r29
     6cc:	cf 91       	pop	r28
     6ce:	1f 91       	pop	r17
     6d0:	0f 91       	pop	r16
     6d2:	ff 90       	pop	r15
     6d4:	ef 90       	pop	r14
     6d6:	08 95       	ret

000006d8 <_Z10OLED_WrDath>:
		OLED_WrCmd(0x00); //设置显示位置―列低地址
		OLED_WrCmd(0x10); //设置显示位置―列高地址
		for (col = 0; col < X_WIDTH; col++)
			OLED_WrDat(bmp_dat); // TODO draw pixel
	}
}
     6d8:	cf 93       	push	r28
     6da:	c8 2f       	mov	r28, r24
     6dc:	d5 d6       	rcall	.+3498   	; 0x1488 <_Z9TWI_Startv>
     6de:	88 e7       	ldi	r24, 0x78	; 120
     6e0:	e2 d6       	rcall	.+3524   	; 0x14a6 <_Z9TWI_Writeh>
     6e2:	80 e4       	ldi	r24, 0x40	; 64
     6e4:	e0 d6       	rcall	.+3520   	; 0x14a6 <_Z9TWI_Writeh>
     6e6:	8c 2f       	mov	r24, r28
     6e8:	de d6       	rcall	.+3516   	; 0x14a6 <_Z9TWI_Writeh>
     6ea:	cf 91       	pop	r28
     6ec:	d9 c6       	rjmp	.+3506   	; 0x14a0 <_Z8TWI_Stopv>

000006ee <_Z10OLED_WrCmdh>:
     6ee:	cf 93       	push	r28
     6f0:	c8 2f       	mov	r28, r24
     6f2:	ca d6       	rcall	.+3476   	; 0x1488 <_Z9TWI_Startv>
     6f4:	88 e7       	ldi	r24, 0x78	; 120
     6f6:	d7 d6       	rcall	.+3502   	; 0x14a6 <_Z9TWI_Writeh>
     6f8:	80 e0       	ldi	r24, 0x00	; 0
     6fa:	d5 d6       	rcall	.+3498   	; 0x14a6 <_Z9TWI_Writeh>
     6fc:	8c 2f       	mov	r24, r28
     6fe:	d3 d6       	rcall	.+3494   	; 0x14a6 <_Z9TWI_Writeh>
     700:	cf 91       	pop	r28
     702:	ce c6       	rjmp	.+3484   	; 0x14a0 <_Z8TWI_Stopv>

00000704 <_Z12OLED_Set_Poshh>:
     704:	cf 93       	push	r28
     706:	c8 2f       	mov	r28, r24
     708:	86 2f       	mov	r24, r22
     70a:	87 70       	andi	r24, 0x07	; 7
     70c:	80 55       	subi	r24, 0x50	; 80
     70e:	ef df       	rcall	.-34     	; 0x6ee <_Z10OLED_WrCmdh>
     710:	8c 2f       	mov	r24, r28
     712:	8f 77       	andi	r24, 0x7F	; 127
     714:	82 95       	swap	r24
     716:	8f 70       	andi	r24, 0x0F	; 15
     718:	80 61       	ori	r24, 0x10	; 16
     71a:	e9 df       	rcall	.-46     	; 0x6ee <_Z10OLED_WrCmdh>
     71c:	8c 2f       	mov	r24, r28
     71e:	8f 70       	andi	r24, 0x0F	; 15
     720:	cf 91       	pop	r28
     722:	e5 cf       	rjmp	.-54     	; 0x6ee <_Z10OLED_WrCmdh>

00000724 <_Z10OLED_Clearv>:

/*********************OLED复位************************************/
void OLED_Clear(void)
{
     724:	cf 93       	push	r28
     726:	df 93       	push	r29
     728:	c0 eb       	ldi	r28, 0xB0	; 176
	unsigned char page, col;
	for (page = 0; page < 8; page++)
	{
		OLED_WrCmd(0xb0 + page);
     72a:	8c 2f       	mov	r24, r28
     72c:	e0 df       	rcall	.-64     	; 0x6ee <_Z10OLED_WrCmdh>
		OLED_WrCmd(0x00);
     72e:	80 e0       	ldi	r24, 0x00	; 0
     730:	de df       	rcall	.-68     	; 0x6ee <_Z10OLED_WrCmdh>
		OLED_WrCmd(0x10);
     732:	80 e1       	ldi	r24, 0x10	; 16
     734:	dc df       	rcall	.-72     	; 0x6ee <_Z10OLED_WrCmdh>
     736:	d1 e8       	ldi	r29, 0x81	; 129
		for (col = 0; col <= X_WIDTH; col++)
			OLED_WrDat(0);
     738:	80 e0       	ldi	r24, 0x00	; 0
     73a:	ce df       	rcall	.-100    	; 0x6d8 <_Z10OLED_WrDath>
     73c:	d1 50       	subi	r29, 0x01	; 1
	for (page = 0; page < 8; page++)
	{
		OLED_WrCmd(0xb0 + page);
		OLED_WrCmd(0x00);
		OLED_WrCmd(0x10);
		for (col = 0; col <= X_WIDTH; col++)
     73e:	e1 f7       	brne	.-8      	; 0x738 <_Z10OLED_Clearv+0x14>
     740:	cf 5f       	subi	r28, 0xFF	; 255

/*********************OLED复位************************************/
void OLED_Clear(void)
{
	unsigned char page, col;
	for (page = 0; page < 8; page++)
     742:	c8 3b       	cpi	r28, 0xB8	; 184
     744:	91 f7       	brne	.-28     	; 0x72a <_Z10OLED_Clearv+0x6>
		OLED_WrCmd(0x00);
		OLED_WrCmd(0x10);
		for (col = 0; col <= X_WIDTH; col++)
			OLED_WrDat(0);
	}
}
     746:	df 91       	pop	r29
     748:	cf 91       	pop	r28
     74a:	08 95       	ret

0000074c <_Z14OLED_DeepClearv>:

void OLED_DeepClear(void)
{
     74c:	cf 93       	push	r28
     74e:	df 93       	push	r29
	unsigned char page, col;
	OLED_Clear();
     750:	e9 df       	rcall	.-46     	; 0x724 <_Z10OLED_Clearv>
     752:	c0 eb       	ldi	r28, 0xB0	; 176
	for (page = 0; page < 8; page++)
	{
		OLED_WrCmd(0xb0 + page);
     754:	8c 2f       	mov	r24, r28
     756:	cb df       	rcall	.-106    	; 0x6ee <_Z10OLED_WrCmdh>
		OLED_WrCmd(0x00);
     758:	80 e0       	ldi	r24, 0x00	; 0
     75a:	c9 df       	rcall	.-110    	; 0x6ee <_Z10OLED_WrCmdh>
		OLED_WrCmd(0x11);
     75c:	81 e1       	ldi	r24, 0x11	; 17
     75e:	c7 df       	rcall	.-114    	; 0x6ee <_Z10OLED_WrCmdh>
     760:	d1 e8       	ldi	r29, 0x81	; 129
		for (col = 0; col <= X_WIDTH; col++)
			OLED_WrDat(0);
     762:	80 e0       	ldi	r24, 0x00	; 0
     764:	b9 df       	rcall	.-142    	; 0x6d8 <_Z10OLED_WrDath>
     766:	d1 50       	subi	r29, 0x01	; 1
	for (page = 0; page < 8; page++)
	{
		OLED_WrCmd(0xb0 + page);
		OLED_WrCmd(0x00);
		OLED_WrCmd(0x11);
		for (col = 0; col <= X_WIDTH; col++)
     768:	e1 f7       	brne	.-8      	; 0x762 <_Z14OLED_DeepClearv+0x16>
     76a:	cf 5f       	subi	r28, 0xFF	; 255

void OLED_DeepClear(void)
{
	unsigned char page, col;
	OLED_Clear();
	for (page = 0; page < 8; page++)
     76c:	c8 3b       	cpi	r28, 0xB8	; 184
     76e:	91 f7       	brne	.-28     	; 0x754 <_Z14OLED_DeepClearv+0x8>
		OLED_WrCmd(0x00);
		OLED_WrCmd(0x11);
		for (col = 0; col <= X_WIDTH; col++)
			OLED_WrDat(0);
	}
}
     770:	df 91       	pop	r29
     772:	cf 91       	pop	r28
     774:	08 95       	ret

00000776 <_Z9OLED_Initv>:

/*********************OLED初始化************************************/
void OLED_Init(void)
{
	TWI_Init();
     776:	82 d6       	rcall	.+3332   	; 0x147c <_Z8TWI_Initv>
	#else
		//round up by default
		__ticks_dc = (uint32_t)(ceil(fabs(__tmp)));
	#endif

	__builtin_avr_delay_cycles(__ticks_dc);
     778:	2f ef       	ldi	r18, 0xFF	; 255
     77a:	89 e6       	ldi	r24, 0x69	; 105
     77c:	98 e1       	ldi	r25, 0x18	; 24
     77e:	21 50       	subi	r18, 0x01	; 1
     780:	80 40       	sbci	r24, 0x00	; 0
     782:	90 40       	sbci	r25, 0x00	; 0
     784:	e1 f7       	brne	.-8      	; 0x77e <_Z9OLED_Initv+0x8>
     786:	00 c0       	rjmp	.+0      	; 0x788 <_Z9OLED_Initv+0x12>
     788:	00 00       	nop
	_delay_ms(500);//初始化之前的延时很重要！
	OLED_WrCmd(0xae);//--turn off oled panel
     78a:	8e ea       	ldi	r24, 0xAE	; 174
     78c:	b0 df       	rcall	.-160    	; 0x6ee <_Z10OLED_WrCmdh>
	OLED_WrCmd(0x00);//---set low column address 
     78e:	80 e0       	ldi	r24, 0x00	; 0
     790:	ae df       	rcall	.-164    	; 0x6ee <_Z10OLED_WrCmdh>
	OLED_WrCmd(0x10);//---set high column address
     792:	80 e1       	ldi	r24, 0x10	; 16
     794:	ac df       	rcall	.-168    	; 0x6ee <_Z10OLED_WrCmdh>
	OLED_WrCmd(0x40);//--set start line address  Set Mapping RAM Display Start Line (0x00~0x3F)
     796:	80 e4       	ldi	r24, 0x40	; 64
     798:	aa df       	rcall	.-172    	; 0x6ee <_Z10OLED_WrCmdh>
	OLED_WrCmd(0x81);//--set contrast control register
     79a:	81 e8       	ldi	r24, 0x81	; 129
     79c:	a8 df       	rcall	.-176    	; 0x6ee <_Z10OLED_WrCmdh>
	OLED_WrCmd(Brightness); // Set SEG Output Current Brightness
     79e:	8f ec       	ldi	r24, 0xCF	; 207
     7a0:	a6 df       	rcall	.-180    	; 0x6ee <_Z10OLED_WrCmdh>
	OLED_WrCmd(0xa1);//--Set SEG/Column Mapping     0xa0左右反置 0xa1正常
     7a2:	81 ea       	ldi	r24, 0xA1	; 161
     7a4:	a4 df       	rcall	.-184    	; 0x6ee <_Z10OLED_WrCmdh>
	OLED_WrCmd(0xc8);//Set COM/Row Scan Direction   0xc0上下反置 0xc8正常
     7a6:	88 ec       	ldi	r24, 0xC8	; 200
     7a8:	a2 df       	rcall	.-188    	; 0x6ee <_Z10OLED_WrCmdh>
	OLED_WrCmd(0xa6);//--set normal display
     7aa:	86 ea       	ldi	r24, 0xA6	; 166
     7ac:	a0 df       	rcall	.-192    	; 0x6ee <_Z10OLED_WrCmdh>
	OLED_WrCmd(0xa8);//--set multiplex ratio(1 to 64)
     7ae:	88 ea       	ldi	r24, 0xA8	; 168
     7b0:	9e df       	rcall	.-196    	; 0x6ee <_Z10OLED_WrCmdh>
	OLED_WrCmd(0x3f);//--1/64 duty
     7b2:	8f e3       	ldi	r24, 0x3F	; 63
     7b4:	9c df       	rcall	.-200    	; 0x6ee <_Z10OLED_WrCmdh>
	OLED_WrCmd(0xd3);//-set display offset	Shift Mapping RAM Counter (0x00~0x3F)
     7b6:	83 ed       	ldi	r24, 0xD3	; 211
     7b8:	9a df       	rcall	.-204    	; 0x6ee <_Z10OLED_WrCmdh>
	OLED_WrCmd(0x00);//-not offset 
     7ba:	80 e0       	ldi	r24, 0x00	; 0
     7bc:	98 df       	rcall	.-208    	; 0x6ee <_Z10OLED_WrCmdh>
	OLED_WrCmd(0xd5);//--set display clock divide ratio/oscillator frequency
     7be:	85 ed       	ldi	r24, 0xD5	; 213
     7c0:	96 df       	rcall	.-212    	; 0x6ee <_Z10OLED_WrCmdh>
	OLED_WrCmd(0x80);//--set divide ratio, Set Clock as 100 Frames/Sec
     7c2:	80 e8       	ldi	r24, 0x80	; 128
     7c4:	94 df       	rcall	.-216    	; 0x6ee <_Z10OLED_WrCmdh>
	OLED_WrCmd(0xd9);//--set pre-charge period
     7c6:	89 ed       	ldi	r24, 0xD9	; 217
     7c8:	92 df       	rcall	.-220    	; 0x6ee <_Z10OLED_WrCmdh>
	OLED_WrCmd(0xf1);//Set Pre-Charge as 15 Clocks & Discharge as 1 Clock
     7ca:	81 ef       	ldi	r24, 0xF1	; 241
     7cc:	90 df       	rcall	.-224    	; 0x6ee <_Z10OLED_WrCmdh>
	OLED_WrCmd(0xda);//--set com pins hardware configuration
     7ce:	8a ed       	ldi	r24, 0xDA	; 218
     7d0:	8e df       	rcall	.-228    	; 0x6ee <_Z10OLED_WrCmdh>
	OLED_WrCmd(0x12);
     7d2:	82 e1       	ldi	r24, 0x12	; 18
     7d4:	8c df       	rcall	.-232    	; 0x6ee <_Z10OLED_WrCmdh>
	OLED_WrCmd(0xdb);//--set vcomh
     7d6:	8b ed       	ldi	r24, 0xDB	; 219
     7d8:	8a df       	rcall	.-236    	; 0x6ee <_Z10OLED_WrCmdh>
	OLED_WrCmd(0x40);//Set VCOM Deselect Level
     7da:	80 e4       	ldi	r24, 0x40	; 64
     7dc:	88 df       	rcall	.-240    	; 0x6ee <_Z10OLED_WrCmdh>
	OLED_WrCmd(0x20);//-Set Page Addressing Mode (0x00/0x01/0x02)
     7de:	80 e2       	ldi	r24, 0x20	; 32
     7e0:	86 df       	rcall	.-244    	; 0x6ee <_Z10OLED_WrCmdh>
	OLED_WrCmd(0x02);// 0x00 Page Address 0x01 Horizontal Address 0x02 Vertical address
     7e2:	82 e0       	ldi	r24, 0x02	; 2
     7e4:	84 df       	rcall	.-248    	; 0x6ee <_Z10OLED_WrCmdh>
	/*
	OLED_WrCmd(0x21);//-Set Column Start Address and Column End Address
	OLED_WrCmd(0x02);// DEBUG
	OLED_WrCmd(0x12);//
	*/
	OLED_WrCmd(0x8d);//--set Charge Pump enable/disable
     7e6:	8d e8       	ldi	r24, 0x8D	; 141
     7e8:	82 df       	rcall	.-252    	; 0x6ee <_Z10OLED_WrCmdh>
	OLED_WrCmd(0x14);//--set(0x10) disable
     7ea:	84 e1       	ldi	r24, 0x14	; 20
     7ec:	80 df       	rcall	.-256    	; 0x6ee <_Z10OLED_WrCmdh>
	//OLED_WrCmd(0xa4);// Disable Entire Display On (0xa4/0xa5)
	//OLED_WrCmd(0xa6);// Disable Inverse Display On (0xa6/a7)
	OLED_WrCmd(0xaf);//--turn on oled panel
     7ee:	8f ea       	ldi	r24, 0xAF	; 175
     7f0:	7e df       	rcall	.-260    	; 0x6ee <_Z10OLED_WrCmdh>
	
	OLED_DeepClear();
     7f2:	ac df       	rcall	.-168    	; 0x74c <_Z14OLED_DeepClearv>
	OLED_Set_Pos(0, 0);
     7f4:	60 e0       	ldi	r22, 0x00	; 0
     7f6:	80 e0       	ldi	r24, 0x00	; 0
     7f8:	85 cf       	rjmp	.-246    	; 0x704 <_Z12OLED_Set_Poshh>

000007fa <_Z14SetCanvasPixelhhh>:
		else
		{
			OP_Line(x, y, x + r * quick_cos(DEG_TO_RAD(theta)), y + r * quick_sin(DEG_TO_RAD(theta)), b);
		}
	}
}
     7fa:	80 34       	cpi	r24, 0x40	; 64
     7fc:	00 f5       	brcc	.+64     	; 0x83e <_Z14SetCanvasPixelhhh+0x44>
     7fe:	60 32       	cpi	r22, 0x20	; 32
     800:	f0 f4       	brcc	.+60     	; 0x83e <_Z14SetCanvasPixelhhh+0x44>
     802:	e8 2f       	mov	r30, r24
     804:	f0 e0       	ldi	r31, 0x00	; 0
     806:	86 2f       	mov	r24, r22
     808:	86 95       	lsr	r24
     80a:	86 95       	lsr	r24
     80c:	86 95       	lsr	r24
     80e:	67 70       	andi	r22, 0x07	; 7
     810:	ee 0f       	add	r30, r30
     812:	ff 1f       	adc	r31, r31
     814:	ee 0f       	add	r30, r30
     816:	ff 1f       	adc	r31, r31
     818:	e2 58       	subi	r30, 0x82	; 130
     81a:	fd 4f       	sbci	r31, 0xFD	; 253
     81c:	e8 0f       	add	r30, r24
     81e:	f1 1d       	adc	r31, r1
     820:	81 e0       	ldi	r24, 0x01	; 1
     822:	90 e0       	ldi	r25, 0x00	; 0
     824:	01 c0       	rjmp	.+2      	; 0x828 <_Z14SetCanvasPixelhhh+0x2e>
     826:	88 0f       	add	r24, r24
     828:	6a 95       	dec	r22
     82a:	ea f7       	brpl	.-6      	; 0x826 <_Z14SetCanvasPixelhhh+0x2c>
     82c:	41 11       	cpse	r20, r1
     82e:	04 c0       	rjmp	.+8      	; 0x838 <_Z14SetCanvasPixelhhh+0x3e>
     830:	80 95       	com	r24
     832:	90 81       	ld	r25, Z
     834:	89 23       	and	r24, r25
     836:	02 c0       	rjmp	.+4      	; 0x83c <_Z14SetCanvasPixelhhh+0x42>
     838:	90 81       	ld	r25, Z
     83a:	89 2b       	or	r24, r25
     83c:	80 83       	st	Z, r24
     83e:	08 95       	ret

00000840 <_Z8OP_Clearv>:
     840:	ee e7       	ldi	r30, 0x7E	; 126
     842:	f2 e0       	ldi	r31, 0x02	; 2
     844:	10 82       	st	Z, r1
     846:	11 82       	std	Z+1, r1	; 0x01
     848:	12 82       	std	Z+2, r1	; 0x02
     84a:	13 82       	std	Z+3, r1	; 0x03
     84c:	34 96       	adiw	r30, 0x04	; 4
     84e:	83 e0       	ldi	r24, 0x03	; 3
     850:	ee 37       	cpi	r30, 0x7E	; 126
     852:	f8 07       	cpc	r31, r24
     854:	b9 f7       	brne	.-18     	; 0x844 <_Z8OP_Clearv+0x4>
     856:	08 95       	ret

00000858 <_Z7OP_Initv>:
     858:	8e df       	rcall	.-228    	; 0x776 <_Z9OLED_Initv>
     85a:	f2 df       	rcall	.-28     	; 0x840 <_Z8OP_Clearv>
     85c:	ee e7       	ldi	r30, 0x7E	; 126
     85e:	f1 e0       	ldi	r31, 0x01	; 1
     860:	10 82       	st	Z, r1
     862:	11 82       	std	Z+1, r1	; 0x01
     864:	12 82       	std	Z+2, r1	; 0x02
     866:	13 82       	std	Z+3, r1	; 0x03
     868:	34 96       	adiw	r30, 0x04	; 4
     86a:	82 e0       	ldi	r24, 0x02	; 2
     86c:	ee 37       	cpi	r30, 0x7E	; 126
     86e:	f8 07       	cpc	r31, r24
     870:	b9 f7       	brne	.-18     	; 0x860 <_Z7OP_Initv+0x8>
     872:	08 95       	ret

00000874 <_Z12_OP_WrPxlDathhh>:
     874:	ef 92       	push	r14
     876:	ff 92       	push	r15
     878:	0f 93       	push	r16
     87a:	1f 93       	push	r17
     87c:	cf 93       	push	r28
     87e:	df 93       	push	r29
     880:	04 e0       	ldi	r16, 0x04	; 4
     882:	80 9f       	mul	r24, r16
     884:	c0 01       	movw	r24, r0
     886:	11 24       	eor	r1, r1
     888:	fc 01       	movw	r30, r24
     88a:	e2 58       	subi	r30, 0x82	; 130
     88c:	fd 4f       	sbci	r31, 0xFD	; 253
     88e:	e6 0f       	add	r30, r22
     890:	f1 1d       	adc	r31, r1
     892:	a0 81       	ld	r26, Z
     894:	b0 e0       	ldi	r27, 0x00	; 0
     896:	c1 e0       	ldi	r28, 0x01	; 1
     898:	d0 e0       	ldi	r29, 0x00	; 0
     89a:	e4 e0       	ldi	r30, 0x04	; 4
     89c:	f0 e0       	ldi	r31, 0x00	; 0
     89e:	60 e0       	ldi	r22, 0x00	; 0
     8a0:	70 e0       	ldi	r23, 0x00	; 0
     8a2:	10 e0       	ldi	r17, 0x00	; 0
     8a4:	41 11       	cpse	r20, r1
     8a6:	02 c0       	rjmp	.+4      	; 0x8ac <_Z12_OP_WrPxlDathhh+0x38>
     8a8:	86 2f       	mov	r24, r22
     8aa:	01 c0       	rjmp	.+2      	; 0x8ae <_Z12_OP_WrPxlDathhh+0x3a>
     8ac:	8e 2f       	mov	r24, r30
     8ae:	26 2f       	mov	r18, r22
     8b0:	7d 01       	movw	r14, r26
     8b2:	02 c0       	rjmp	.+4      	; 0x8b8 <_Z12_OP_WrPxlDathhh+0x44>
     8b4:	f5 94       	asr	r15
     8b6:	e7 94       	ror	r14
     8b8:	8a 95       	dec	r24
     8ba:	e2 f7       	brpl	.-8      	; 0x8b4 <_Z12_OP_WrPxlDathhh+0x40>
     8bc:	c7 01       	movw	r24, r14
     8be:	81 70       	andi	r24, 0x01	; 1
     8c0:	99 27       	eor	r25, r25
     8c2:	7b 01       	movw	r14, r22
     8c4:	ee 0c       	add	r14, r14
     8c6:	ff 1c       	adc	r15, r15
     8c8:	01 c0       	rjmp	.+2      	; 0x8cc <_Z12_OP_WrPxlDathhh+0x58>
     8ca:	88 0f       	add	r24, r24
     8cc:	ea 94       	dec	r14
     8ce:	ea f7       	brpl	.-6      	; 0x8ca <_Z12_OP_WrPxlDathhh+0x56>
     8d0:	81 2b       	or	r24, r17
     8d2:	41 11       	cpse	r20, r1
     8d4:	2e 2f       	mov	r18, r30
     8d6:	8d 01       	movw	r16, r26
     8d8:	02 c0       	rjmp	.+4      	; 0x8de <_Z12_OP_WrPxlDathhh+0x6a>
     8da:	15 95       	asr	r17
     8dc:	07 95       	ror	r16
     8de:	2a 95       	dec	r18
     8e0:	e2 f7       	brpl	.-8      	; 0x8da <_Z12_OP_WrPxlDathhh+0x66>
     8e2:	98 01       	movw	r18, r16
     8e4:	21 70       	andi	r18, 0x01	; 1
     8e6:	33 27       	eor	r19, r19
     8e8:	0c 2e       	mov	r0, r28
     8ea:	01 c0       	rjmp	.+2      	; 0x8ee <_Z12_OP_WrPxlDathhh+0x7a>
     8ec:	22 0f       	add	r18, r18
     8ee:	0a 94       	dec	r0
     8f0:	ea f7       	brpl	.-6      	; 0x8ec <_Z12_OP_WrPxlDathhh+0x78>
     8f2:	18 2f       	mov	r17, r24
     8f4:	12 2b       	or	r17, r18
     8f6:	6f 5f       	subi	r22, 0xFF	; 255
     8f8:	7f 4f       	sbci	r23, 0xFF	; 255
     8fa:	31 96       	adiw	r30, 0x01	; 1
     8fc:	22 96       	adiw	r28, 0x02	; 2
     8fe:	64 30       	cpi	r22, 0x04	; 4
     900:	71 05       	cpc	r23, r1
     902:	81 f6       	brne	.-96     	; 0x8a4 <_Z12_OP_WrPxlDathhh+0x30>
     904:	81 2f       	mov	r24, r17
     906:	e8 de       	rcall	.-560    	; 0x6d8 <_Z10OLED_WrDath>
     908:	81 2f       	mov	r24, r17
     90a:	df 91       	pop	r29
     90c:	cf 91       	pop	r28
     90e:	1f 91       	pop	r17
     910:	0f 91       	pop	r16
     912:	ff 90       	pop	r15
     914:	ef 90       	pop	r14
     916:	e0 ce       	rjmp	.-576    	; 0x6d8 <_Z10OLED_WrDath>

00000918 <_Z26_OP_UpdatePageAccordToDiffPhhh>:
     918:	af 92       	push	r10
     91a:	bf 92       	push	r11
     91c:	cf 92       	push	r12
     91e:	df 92       	push	r13
     920:	ef 92       	push	r14
     922:	ff 92       	push	r15
     924:	0f 93       	push	r16
     926:	1f 93       	push	r17
     928:	cf 93       	push	r28
     92a:	df 93       	push	r29
     92c:	6c 01       	movw	r12, r24
     92e:	16 2f       	mov	r17, r22
     930:	04 2f       	mov	r16, r20
     932:	e6 2e       	mov	r14, r22
     934:	ee 0c       	add	r14, r14
     936:	e4 0e       	add	r14, r20
     938:	c0 e0       	ldi	r28, 0x00	; 0
     93a:	d0 e0       	ldi	r29, 0x00	; 0
     93c:	f6 01       	movw	r30, r12
     93e:	ec 0f       	add	r30, r28
     940:	fd 1f       	adc	r31, r29
     942:	80 81       	ld	r24, Z
     944:	88 23       	and	r24, r24
     946:	39 f1       	breq	.+78     	; 0x996 <_Z26_OP_UpdatePageAccordToDiffPhhh+0x7e>
     948:	6e 2d       	mov	r22, r14
     94a:	ce 01       	movw	r24, r28
     94c:	01 96       	adiw	r24, 0x01	; 1
     94e:	88 0f       	add	r24, r24
     950:	d9 de       	rcall	.-590    	; 0x704 <_Z12OLED_Set_Poshh>
     952:	40 2f       	mov	r20, r16
     954:	61 2f       	mov	r22, r17
     956:	8c 2f       	mov	r24, r28
     958:	8d df       	rcall	.-230    	; 0x874 <_Z12_OP_WrPxlDathhh>
     95a:	56 01       	movw	r10, r12
     95c:	ac 0e       	add	r10, r28
     95e:	bd 1e       	adc	r11, r29
     960:	f5 01       	movw	r30, r10
     962:	80 81       	ld	r24, Z
     964:	83 30       	cpi	r24, 0x03	; 3
     966:	b8 f4       	brcc	.+46     	; 0x996 <_Z26_OP_UpdatePageAccordToDiffPhhh+0x7e>
     968:	fc 2e       	mov	r15, r28
     96a:	f3 94       	inc	r15
     96c:	f5 01       	movw	r30, r10
     96e:	80 81       	ld	r24, Z
     970:	9e 01       	movw	r18, r28
     972:	28 0f       	add	r18, r24
     974:	31 1d       	adc	r19, r1
     976:	c9 01       	movw	r24, r18
     978:	2f 2d       	mov	r18, r15
     97a:	30 e0       	ldi	r19, 0x00	; 0
     97c:	82 17       	cp	r24, r18
     97e:	93 07       	cpc	r25, r19
     980:	10 f4       	brcc	.+4      	; 0x986 <_Z26_OP_UpdatePageAccordToDiffPhhh+0x6e>
     982:	ec 01       	movw	r28, r24
     984:	ea cf       	rjmp	.-44     	; 0x95a <_Z26_OP_UpdatePageAccordToDiffPhhh+0x42>
     986:	3f e3       	ldi	r19, 0x3F	; 63
     988:	f3 16       	cp	r15, r19
     98a:	d9 f3       	breq	.-10     	; 0x982 <_Z26_OP_UpdatePageAccordToDiffPhhh+0x6a>
     98c:	40 2f       	mov	r20, r16
     98e:	61 2f       	mov	r22, r17
     990:	8f 2d       	mov	r24, r15
     992:	70 df       	rcall	.-288    	; 0x874 <_Z12_OP_WrPxlDathhh>
     994:	ea cf       	rjmp	.-44     	; 0x96a <_Z26_OP_UpdatePageAccordToDiffPhhh+0x52>
     996:	21 96       	adiw	r28, 0x01	; 1
     998:	cf 33       	cpi	r28, 0x3F	; 63
     99a:	d1 05       	cpc	r29, r1
     99c:	78 f2       	brcs	.-98     	; 0x93c <_Z26_OP_UpdatePageAccordToDiffPhhh+0x24>
     99e:	f6 01       	movw	r30, r12
     9a0:	87 ad       	ldd	r24, Z+63	; 0x3f
     9a2:	88 23       	and	r24, r24
     9a4:	c1 f0       	breq	.+48     	; 0x9d6 <_Z26_OP_UpdatePageAccordToDiffPhhh+0xbe>
     9a6:	86 ad       	ldd	r24, Z+62	; 0x3e
     9a8:	81 11       	cpse	r24, r1
     9aa:	07 c0       	rjmp	.+14     	; 0x9ba <_Z26_OP_UpdatePageAccordToDiffPhhh+0xa2>
     9ac:	6e 2d       	mov	r22, r14
     9ae:	8e e7       	ldi	r24, 0x7E	; 126
     9b0:	a9 de       	rcall	.-686    	; 0x704 <_Z12OLED_Set_Poshh>
     9b2:	40 2f       	mov	r20, r16
     9b4:	61 2f       	mov	r22, r17
     9b6:	8e e3       	ldi	r24, 0x3E	; 62
     9b8:	5d df       	rcall	.-326    	; 0x874 <_Z12_OP_WrPxlDathhh>
     9ba:	40 2f       	mov	r20, r16
     9bc:	61 2f       	mov	r22, r17
     9be:	8f e3       	ldi	r24, 0x3F	; 63
     9c0:	df 91       	pop	r29
     9c2:	cf 91       	pop	r28
     9c4:	1f 91       	pop	r17
     9c6:	0f 91       	pop	r16
     9c8:	ff 90       	pop	r15
     9ca:	ef 90       	pop	r14
     9cc:	df 90       	pop	r13
     9ce:	cf 90       	pop	r12
     9d0:	bf 90       	pop	r11
     9d2:	af 90       	pop	r10
     9d4:	4f cf       	rjmp	.-354    	; 0x874 <_Z12_OP_WrPxlDathhh>
     9d6:	df 91       	pop	r29
     9d8:	cf 91       	pop	r28
     9da:	1f 91       	pop	r17
     9dc:	0f 91       	pop	r16
     9de:	ff 90       	pop	r15
     9e0:	ef 90       	pop	r14
     9e2:	df 90       	pop	r13
     9e4:	cf 90       	pop	r12
     9e6:	bf 90       	pop	r11
     9e8:	af 90       	pop	r10
     9ea:	08 95       	ret

000009ec <_Z25OP_DoubleBufferUpdatePageh>:
     9ec:	af 92       	push	r10
     9ee:	bf 92       	push	r11
     9f0:	df 92       	push	r13
     9f2:	ef 92       	push	r14
     9f4:	ff 92       	push	r15
     9f6:	0f 93       	push	r16
     9f8:	1f 93       	push	r17
     9fa:	cf 93       	push	r28
     9fc:	df 93       	push	r29
     9fe:	cd b7       	in	r28, 0x3d	; 61
     a00:	de b7       	in	r29, 0x3e	; 62
     a02:	c0 54       	subi	r28, 0x40	; 64
     a04:	d1 09       	sbc	r29, r1
     a06:	0f b6       	in	r0, 0x3f	; 63
     a08:	f8 94       	cli
     a0a:	de bf       	out	0x3e, r29	; 62
     a0c:	0f be       	out	0x3f, r0	; 63
     a0e:	cd bf       	out	0x3d, r28	; 61
     a10:	d8 2e       	mov	r13, r24
     a12:	ce 01       	movw	r24, r28
     a14:	01 96       	adiw	r24, 0x01	; 1
     a16:	7c 01       	movw	r14, r24
     a18:	80 e4       	ldi	r24, 0x40	; 64
     a1a:	d7 01       	movw	r26, r14
     a1c:	1d 92       	st	X+, r1
     a1e:	8a 95       	dec	r24
     a20:	e9 f7       	brne	.-6      	; 0xa1c <_Z25OP_DoubleBufferUpdatePageh+0x30>
     a22:	0d 2d       	mov	r16, r13
     a24:	10 e0       	ldi	r17, 0x00	; 0
     a26:	98 01       	movw	r18, r16
     a28:	22 58       	subi	r18, 0x82	; 130
     a2a:	3d 4f       	sbci	r19, 0xFD	; 253
     a2c:	f8 01       	movw	r30, r16
     a2e:	e2 58       	subi	r30, 0x82	; 130
     a30:	fe 4f       	sbci	r31, 0xFE	; 254
     a32:	5f 01       	movw	r10, r30
     a34:	f7 01       	movw	r30, r14
     a36:	9f ef       	ldi	r25, 0xFF	; 255
     a38:	80 e0       	ldi	r24, 0x00	; 0
     a3a:	4f ef       	ldi	r20, 0xFF	; 255
     a3c:	d9 01       	movw	r26, r18
     a3e:	6c 91       	ld	r22, X
     a40:	d5 01       	movw	r26, r10
     a42:	5c 91       	ld	r21, X
     a44:	65 17       	cp	r22, r21
     a46:	59 f0       	breq	.+22     	; 0xa5e <_Z25OP_DoubleBufferUpdatePageh+0x72>
     a48:	40 83       	st	Z, r20
     a4a:	b7 01       	movw	r22, r14
     a4c:	69 0f       	add	r22, r25
     a4e:	71 1d       	adc	r23, r1
     a50:	b8 2f       	mov	r27, r24
     a52:	b9 1b       	sub	r27, r25
     a54:	9b 2f       	mov	r25, r27
     a56:	db 01       	movw	r26, r22
     a58:	9c 93       	st	X, r25
     a5a:	98 2f       	mov	r25, r24
     a5c:	01 c0       	rjmp	.+2      	; 0xa60 <_Z25OP_DoubleBufferUpdatePageh+0x74>
     a5e:	10 82       	st	Z, r1
     a60:	8f 5f       	subi	r24, 0xFF	; 255
     a62:	2c 5f       	subi	r18, 0xFC	; 252
     a64:	3f 4f       	sbci	r19, 0xFF	; 255
     a66:	b4 e0       	ldi	r27, 0x04	; 4
     a68:	ab 0e       	add	r10, r27
     a6a:	b1 1c       	adc	r11, r1
     a6c:	31 96       	adiw	r30, 0x01	; 1
     a6e:	80 34       	cpi	r24, 0x40	; 64
     a70:	29 f7       	brne	.-54     	; 0xa3c <_Z25OP_DoubleBufferUpdatePageh+0x50>
     a72:	40 e0       	ldi	r20, 0x00	; 0
     a74:	6d 2d       	mov	r22, r13
     a76:	c7 01       	movw	r24, r14
     a78:	4f df       	rcall	.-354    	; 0x918 <_Z26_OP_UpdatePageAccordToDiffPhhh>
     a7a:	41 e0       	ldi	r20, 0x01	; 1
     a7c:	6d 2d       	mov	r22, r13
     a7e:	c7 01       	movw	r24, r14
     a80:	4b df       	rcall	.-362    	; 0x918 <_Z26_OP_UpdatePageAccordToDiffPhhh>
     a82:	d8 01       	movw	r26, r16
     a84:	a2 58       	subi	r26, 0x82	; 130
     a86:	bd 4f       	sbci	r27, 0xFD	; 253
     a88:	f8 01       	movw	r30, r16
     a8a:	e2 58       	subi	r30, 0x82	; 130
     a8c:	fe 4f       	sbci	r31, 0xFE	; 254
     a8e:	80 e4       	ldi	r24, 0x40	; 64
     a90:	9c 91       	ld	r25, X
     a92:	90 83       	st	Z, r25
     a94:	81 50       	subi	r24, 0x01	; 1
     a96:	14 96       	adiw	r26, 0x04	; 4
     a98:	34 96       	adiw	r30, 0x04	; 4
     a9a:	81 11       	cpse	r24, r1
     a9c:	f9 cf       	rjmp	.-14     	; 0xa90 <_Z25OP_DoubleBufferUpdatePageh+0xa4>
     a9e:	c0 5c       	subi	r28, 0xC0	; 192
     aa0:	df 4f       	sbci	r29, 0xFF	; 255
     aa2:	0f b6       	in	r0, 0x3f	; 63
     aa4:	f8 94       	cli
     aa6:	de bf       	out	0x3e, r29	; 62
     aa8:	0f be       	out	0x3f, r0	; 63
     aaa:	cd bf       	out	0x3d, r28	; 61
     aac:	df 91       	pop	r29
     aae:	cf 91       	pop	r28
     ab0:	1f 91       	pop	r17
     ab2:	0f 91       	pop	r16
     ab4:	ff 90       	pop	r15
     ab6:	ef 90       	pop	r14
     ab8:	df 90       	pop	r13
     aba:	bf 90       	pop	r11
     abc:	af 90       	pop	r10
     abe:	08 95       	ret

00000ac0 <_Z9OP_Updatev>:
     ac0:	80 e0       	ldi	r24, 0x00	; 0
     ac2:	94 df       	rcall	.-216    	; 0x9ec <_Z25OP_DoubleBufferUpdatePageh>
     ac4:	81 e0       	ldi	r24, 0x01	; 1
     ac6:	92 df       	rcall	.-220    	; 0x9ec <_Z25OP_DoubleBufferUpdatePageh>
     ac8:	82 e0       	ldi	r24, 0x02	; 2
     aca:	90 df       	rcall	.-224    	; 0x9ec <_Z25OP_DoubleBufferUpdatePageh>
     acc:	83 e0       	ldi	r24, 0x03	; 3
     ace:	8e cf       	rjmp	.-228    	; 0x9ec <_Z25OP_DoubleBufferUpdatePageh>

00000ad0 <_Z11OP_PutPixelhhh>:
     ad0:	94 ce       	rjmp	.-728    	; 0x7fa <_Z14SetCanvasPixelhhh>

00000ad2 <_Z10OP_TextOuthhPKchh>:
}

#endif

void OP_TextOut(unsigned char x, unsigned char y, const char str[], unsigned char len, unsigned char b) // 6 x 8 chars
{
     ad2:	2f 92       	push	r2
     ad4:	3f 92       	push	r3
     ad6:	4f 92       	push	r4
     ad8:	5f 92       	push	r5
     ada:	6f 92       	push	r6
     adc:	7f 92       	push	r7
     ade:	8f 92       	push	r8
     ae0:	9f 92       	push	r9
     ae2:	af 92       	push	r10
     ae4:	bf 92       	push	r11
     ae6:	cf 92       	push	r12
     ae8:	df 92       	push	r13
     aea:	ef 92       	push	r14
     aec:	ff 92       	push	r15
     aee:	0f 93       	push	r16
     af0:	1f 93       	push	r17
     af2:	cf 93       	push	r28
     af4:	df 93       	push	r29
     af6:	cd b7       	in	r28, 0x3d	; 61
     af8:	de b7       	in	r29, 0x3e	; 62
     afa:	29 97       	sbiw	r28, 0x09	; 9
     afc:	0f b6       	in	r0, 0x3f	; 63
     afe:	f8 94       	cli
     b00:	de bf       	out	0x3e, r29	; 62
     b02:	0f be       	out	0x3f, r0	; 63
     b04:	cd bf       	out	0x3d, r28	; 61
     b06:	1a 01       	movw	r2, r20
     b08:	42 2e       	mov	r4, r18
     b0a:	0b 83       	std	Y+3, r16	; 0x03
			char ch = GetP6x8ChDat(str[c], col);
			#endif
			
			if(b)
			{
				canvas[x + c * CHARWX + col][y / PIXELPERPAGE] |= (ch << (y % PIXELPERPAGE));
     b0c:	06 2f       	mov	r16, r22
     b0e:	06 95       	lsr	r16
     b10:	06 95       	lsr	r16
     b12:	06 95       	lsr	r16
     b14:	c0 2e       	mov	r12, r16
     b16:	d1 2c       	mov	r13, r1
				if(y % PIXELPERPAGE != 0 && y / PIXELPERPAGE + 1 < SCR_WY)
				{
					canvas[x + c * CHARWX + col][y / PIXELPERPAGE + 1] |= (ch >> (PIXELPERPAGE - y % PIXELPERPAGE));
     b18:	36 01       	movw	r6, r12
     b1a:	2f ef       	ldi	r18, 0xFF	; 255
     b1c:	62 1a       	sub	r6, r18
     b1e:	72 0a       	sbc	r7, r18
     b20:	a8 2e       	mov	r10, r24
     b22:	b1 2c       	mov	r11, r1
     b24:	f6 01       	movw	r30, r12
     b26:	24 e0       	ldi	r18, 0x04	; 4
     b28:	82 9f       	mul	r24, r18
     b2a:	e0 0d       	add	r30, r0
     b2c:	f1 1d       	adc	r31, r1
     b2e:	11 24       	eor	r1, r1
     b30:	81 2c       	mov	r8, r1
     b32:	91 2c       	mov	r9, r1

void OP_TextOut(unsigned char x, unsigned char y, const char str[], unsigned char len, unsigned char b) // 6 x 8 chars
{
#define CHARWX 6 __CONST__
#define CHARWY 8 __CONST__
	for(unsigned char c = 0; c < len; c ++)
     b34:	51 2c       	mov	r5, r1
     b36:	31 96       	adiw	r30, 0x01	; 1
     b38:	ff 83       	std	Y+7, r31	; 0x07
     b3a:	ee 83       	std	Y+6, r30	; 0x06
     b3c:	16 2f       	mov	r17, r22
     b3e:	17 70       	andi	r17, 0x07	; 7
			else
			{
				canvas[x + c * CHARWX + col][y / PIXELPERPAGE] &= ~(ch << (y % PIXELPERPAGE));
				if(y % PIXELPERPAGE != 0 && y / PIXELPERPAGE + 1 < SCR_WY)
				{
					canvas[x + c * CHARWX + col][y / PIXELPERPAGE + 1] &= ~(ch >> (PIXELPERPAGE - y % PIXELPERPAGE));
     b40:	88 e0       	ldi	r24, 0x08	; 8
     b42:	90 e0       	ldi	r25, 0x00	; 0
     b44:	9c 01       	movw	r18, r24
     b46:	21 1b       	sub	r18, r17
     b48:	31 09       	sbc	r19, r1
     b4a:	3a 83       	std	Y+2, r19	; 0x02
     b4c:	29 83       	std	Y+1, r18	; 0x01

void OP_TextOut(unsigned char x, unsigned char y, const char str[], unsigned char len, unsigned char b) // 6 x 8 chars
{
#define CHARWX 6 __CONST__
#define CHARWY 8 __CONST__
	for(unsigned char c = 0; c < len; c ++)
     b4e:	54 14       	cp	r5, r4
     b50:	09 f4       	brne	.+2      	; 0xb54 <_Z10OP_TextOuthhPKchh+0x82>
     b52:	72 c0       	rjmp	.+228    	; 0xc38 <_Z10OP_TextOuthhPKchh+0x166>
     b54:	8e 81       	ldd	r24, Y+6	; 0x06
     b56:	9f 81       	ldd	r25, Y+7	; 0x07
     b58:	88 0d       	add	r24, r8
     b5a:	99 1d       	adc	r25, r9
     b5c:	82 58       	subi	r24, 0x82	; 130
     b5e:	9d 4f       	sbci	r25, 0xFD	; 253
     b60:	99 87       	std	Y+9, r25	; 0x09
     b62:	88 87       	std	Y+8, r24	; 0x08
     b64:	e1 2c       	mov	r14, r1
     b66:	f1 2c       	mov	r15, r1
				return;
			
			#ifdef USE_V2_CODETAB
			char ch = GetP6x8ChDat_V2(str[c], col);
			#else
			char ch = GetP6x8ChDat(str[c], col);
     b68:	f1 01       	movw	r30, r2
     b6a:	e5 0d       	add	r30, r5
     b6c:	f1 1d       	adc	r31, r1
     b6e:	fd 83       	std	Y+5, r31	; 0x05
     b70:	ec 83       	std	Y+4, r30	; 0x04
#define CHARWY 8 __CONST__
	for(unsigned char c = 0; c < len; c ++)
	{
		for (unsigned char col = 0; col < CHARWX; col ++)
		{
			if(x + c * CHARWX + col >= SCR_WX)
     b72:	c5 01       	movw	r24, r10
     b74:	8e 0d       	add	r24, r14
     b76:	9f 1d       	adc	r25, r15
     b78:	80 34       	cpi	r24, 0x40	; 64
     b7a:	91 05       	cpc	r25, r1
     b7c:	0c f0       	brlt	.+2      	; 0xb80 <_Z10OP_TextOuthhPKchh+0xae>
     b7e:	5c c0       	rjmp	.+184    	; 0xc38 <_Z10OP_TextOuthhPKchh+0x166>
				return;
			
			#ifdef USE_V2_CODETAB
			char ch = GetP6x8ChDat_V2(str[c], col);
			#else
			char ch = GetP6x8ChDat(str[c], col);
     b80:	6e 2d       	mov	r22, r14
     b82:	ec 81       	ldd	r30, Y+4	; 0x04
     b84:	fd 81       	ldd	r31, Y+5	; 0x05
     b86:	80 81       	ld	r24, Z
     b88:	34 dd       	rcall	.-1432   	; 0x5f2 <_Z12GetP6x8ChDatch>
     b8a:	28 85       	ldd	r18, Y+8	; 0x08
     b8c:	39 85       	ldd	r19, Y+9	; 0x09
     b8e:	26 19       	sub	r18, r6
     b90:	37 09       	sbc	r19, r7
     b92:	90 e0       	ldi	r25, 0x00	; 0
			#endif
			
			if(b)
     b94:	fb 81       	ldd	r31, Y+3	; 0x03
     b96:	ff 23       	and	r31, r31
     b98:	d9 f0       	breq	.+54     	; 0xbd0 <_Z10OP_TextOuthhPKchh+0xfe>
     b9a:	f9 01       	movw	r30, r18
     b9c:	ec 0d       	add	r30, r12
     b9e:	fd 1d       	adc	r31, r13
			{
				canvas[x + c * CHARWX + col][y / PIXELPERPAGE] |= (ch << (y % PIXELPERPAGE));
     ba0:	20 81       	ld	r18, Z
     ba2:	ac 01       	movw	r20, r24
     ba4:	01 2e       	mov	r0, r17
     ba6:	01 c0       	rjmp	.+2      	; 0xbaa <_Z10OP_TextOuthhPKchh+0xd8>
     ba8:	44 0f       	add	r20, r20
     baa:	0a 94       	dec	r0
     bac:	ea f7       	brpl	.-6      	; 0xba8 <_Z10OP_TextOuthhPKchh+0xd6>
     bae:	42 2b       	or	r20, r18
     bb0:	40 83       	st	Z, r20
				if(y % PIXELPERPAGE != 0 && y / PIXELPERPAGE + 1 < SCR_WY)
     bb2:	11 23       	and	r17, r17
     bb4:	59 f1       	breq	.+86     	; 0xc0c <_Z10OP_TextOuthhPKchh+0x13a>
     bb6:	0f 31       	cpi	r16, 0x1F	; 31
     bb8:	49 f1       	breq	.+82     	; 0xc0c <_Z10OP_TextOuthhPKchh+0x13a>
				{
					canvas[x + c * CHARWX + col][y / PIXELPERPAGE + 1] |= (ch >> (PIXELPERPAGE - y % PIXELPERPAGE));
     bba:	09 80       	ldd	r0, Y+1	; 0x01
     bbc:	02 c0       	rjmp	.+4      	; 0xbc2 <_Z10OP_TextOuthhPKchh+0xf0>
     bbe:	95 95       	asr	r25
     bc0:	87 95       	ror	r24
     bc2:	0a 94       	dec	r0
     bc4:	e2 f7       	brpl	.-8      	; 0xbbe <_Z10OP_TextOuthhPKchh+0xec>
     bc6:	e8 85       	ldd	r30, Y+8	; 0x08
     bc8:	f9 85       	ldd	r31, Y+9	; 0x09
     bca:	90 81       	ld	r25, Z
     bcc:	89 2b       	or	r24, r25
     bce:	1d c0       	rjmp	.+58     	; 0xc0a <_Z10OP_TextOuthhPKchh+0x138>
     bd0:	f9 01       	movw	r30, r18
     bd2:	ec 0d       	add	r30, r12
     bd4:	fd 1d       	adc	r31, r13
				}
			}
			else
			{
				canvas[x + c * CHARWX + col][y / PIXELPERPAGE] &= ~(ch << (y % PIXELPERPAGE));
     bd6:	ac 01       	movw	r20, r24
     bd8:	01 2e       	mov	r0, r17
     bda:	01 c0       	rjmp	.+2      	; 0xbde <_Z10OP_TextOuthhPKchh+0x10c>
     bdc:	44 0f       	add	r20, r20
     bde:	0a 94       	dec	r0
     be0:	ea f7       	brpl	.-6      	; 0xbdc <_Z10OP_TextOuthhPKchh+0x10a>
     be2:	40 95       	com	r20
     be4:	50 81       	ld	r21, Z
     be6:	45 23       	and	r20, r21
     be8:	40 83       	st	Z, r20
				if(y % PIXELPERPAGE != 0 && y / PIXELPERPAGE + 1 < SCR_WY)
     bea:	11 23       	and	r17, r17
     bec:	79 f0       	breq	.+30     	; 0xc0c <_Z10OP_TextOuthhPKchh+0x13a>
     bee:	0f 31       	cpi	r16, 0x1F	; 31
     bf0:	69 f0       	breq	.+26     	; 0xc0c <_Z10OP_TextOuthhPKchh+0x13a>
     bf2:	f9 01       	movw	r30, r18
     bf4:	e6 0d       	add	r30, r6
     bf6:	f7 1d       	adc	r31, r7
				{
					canvas[x + c * CHARWX + col][y / PIXELPERPAGE + 1] &= ~(ch >> (PIXELPERPAGE - y % PIXELPERPAGE));
     bf8:	09 80       	ldd	r0, Y+1	; 0x01
     bfa:	02 c0       	rjmp	.+4      	; 0xc00 <_Z10OP_TextOuthhPKchh+0x12e>
     bfc:	95 95       	asr	r25
     bfe:	87 95       	ror	r24
     c00:	0a 94       	dec	r0
     c02:	e2 f7       	brpl	.-8      	; 0xbfc <_Z10OP_TextOuthhPKchh+0x12a>
     c04:	80 95       	com	r24
     c06:	90 81       	ld	r25, Z
     c08:	89 23       	and	r24, r25
     c0a:	80 83       	st	Z, r24
     c0c:	ff ef       	ldi	r31, 0xFF	; 255
     c0e:	ef 1a       	sub	r14, r31
     c10:	ff 0a       	sbc	r15, r31
     c12:	28 85       	ldd	r18, Y+8	; 0x08
     c14:	39 85       	ldd	r19, Y+9	; 0x09
     c16:	2c 5f       	subi	r18, 0xFC	; 252
     c18:	3f 4f       	sbci	r19, 0xFF	; 255
     c1a:	39 87       	std	Y+9, r19	; 0x09
     c1c:	28 87       	std	Y+8, r18	; 0x08
{
#define CHARWX 6 __CONST__
#define CHARWY 8 __CONST__
	for(unsigned char c = 0; c < len; c ++)
	{
		for (unsigned char col = 0; col < CHARWX; col ++)
     c1e:	36 e0       	ldi	r19, 0x06	; 6
     c20:	e3 16       	cp	r14, r19
     c22:	f1 04       	cpc	r15, r1
     c24:	09 f0       	breq	.+2      	; 0xc28 <_Z10OP_TextOuthhPKchh+0x156>
     c26:	a5 cf       	rjmp	.-182    	; 0xb72 <_Z10OP_TextOuthhPKchh+0xa0>

void OP_TextOut(unsigned char x, unsigned char y, const char str[], unsigned char len, unsigned char b) // 6 x 8 chars
{
#define CHARWX 6 __CONST__
#define CHARWY 8 __CONST__
	for(unsigned char c = 0; c < len; c ++)
     c28:	53 94       	inc	r5
     c2a:	48 e1       	ldi	r20, 0x18	; 24
     c2c:	84 0e       	add	r8, r20
     c2e:	91 1c       	adc	r9, r1
     c30:	86 e0       	ldi	r24, 0x06	; 6
     c32:	a8 0e       	add	r10, r24
     c34:	b1 1c       	adc	r11, r1
     c36:	8b cf       	rjmp	.-234    	; 0xb4e <_Z10OP_TextOuthhPKchh+0x7c>
					canvas[x + c * CHARWX + col][y / PIXELPERPAGE + 1] &= ~(ch >> (PIXELPERPAGE - y % PIXELPERPAGE));
				}
			}
		}
	}
     c38:	29 96       	adiw	r28, 0x09	; 9
     c3a:	0f b6       	in	r0, 0x3f	; 63
     c3c:	f8 94       	cli
     c3e:	de bf       	out	0x3e, r29	; 62
     c40:	0f be       	out	0x3f, r0	; 63
     c42:	cd bf       	out	0x3d, r28	; 61
     c44:	df 91       	pop	r29
     c46:	cf 91       	pop	r28
     c48:	1f 91       	pop	r17
     c4a:	0f 91       	pop	r16
     c4c:	ff 90       	pop	r15
     c4e:	ef 90       	pop	r14
     c50:	df 90       	pop	r13
     c52:	cf 90       	pop	r12
     c54:	bf 90       	pop	r11
     c56:	af 90       	pop	r10
     c58:	9f 90       	pop	r9
     c5a:	8f 90       	pop	r8
     c5c:	7f 90       	pop	r7
     c5e:	6f 90       	pop	r6
     c60:	5f 90       	pop	r5
     c62:	4f 90       	pop	r4
     c64:	3f 90       	pop	r3
     c66:	2f 90       	pop	r2
     c68:	08 95       	ret

00000c6a <_Z10IsPinValidh>:
		}
	}
}

bool IsPinValid(PINS pin)
{
     c6a:	98 2f       	mov	r25, r24
	if( (pin >= PINS_B0 && pin <= PINS_B7) || (pin >= PINS_C0 && pin <= PINS_C6) || (pin >= PINS_D0 && pin <= PINS_D7) || pin == PINS_NULL)
     c6c:	80 e5       	ldi	r24, 0x50	; 80
     c6e:	89 0f       	add	r24, r25
     c70:	88 30       	cpi	r24, 0x08	; 8
     c72:	68 f0       	brcs	.+26     	; 0xc8e <_Z10IsPinValidh+0x24>
     c74:	80 e4       	ldi	r24, 0x40	; 64
     c76:	89 0f       	add	r24, r25
     c78:	87 30       	cpi	r24, 0x07	; 7
     c7a:	48 f0       	brcs	.+18     	; 0xc8e <_Z10IsPinValidh+0x24>
     c7c:	80 e3       	ldi	r24, 0x30	; 48
     c7e:	89 0f       	add	r24, r25
     c80:	88 30       	cpi	r24, 0x08	; 8
     c82:	28 f0       	brcs	.+10     	; 0xc8e <_Z10IsPinValidh+0x24>
     c84:	81 e0       	ldi	r24, 0x01	; 1
     c86:	97 3c       	cpi	r25, 0xC7	; 199
     c88:	19 f0       	breq	.+6      	; 0xc90 <_Z10IsPinValidh+0x26>
     c8a:	80 e0       	ldi	r24, 0x00	; 0
     c8c:	08 95       	ret
		return true;
     c8e:	81 e0       	ldi	r24, 0x01	; 1
	return false;
}
     c90:	08 95       	ret

00000c92 <_Z10SetPinModehb>:
 */ 

#include "pins.h"

void SetPinMode(PINS pin, bool bMode)
{
     c92:	cf 93       	push	r28
     c94:	df 93       	push	r29
     c96:	c8 2f       	mov	r28, r24
     c98:	d6 2f       	mov	r29, r22
	if(!IsPinValid(pin))
     c9a:	e7 df       	rcall	.-50     	; 0xc6a <_Z10IsPinValidh>
     c9c:	88 23       	and	r24, r24
     c9e:	f1 f1       	breq	.+124    	; 0xd1c <_Z10SetPinModehb+0x8a>
		return;
		
	switch(pin >> 4)
     ca0:	8c 2f       	mov	r24, r28
     ca2:	90 e0       	ldi	r25, 0x00	; 0
     ca4:	24 e0       	ldi	r18, 0x04	; 4
     ca6:	95 95       	asr	r25
     ca8:	87 95       	ror	r24
     caa:	2a 95       	dec	r18
     cac:	e1 f7       	brne	.-8      	; 0xca6 <_Z10SetPinModehb+0x14>
     cae:	8c 30       	cpi	r24, 0x0C	; 12
     cb0:	91 05       	cpc	r25, r1
     cb2:	a9 f0       	breq	.+42     	; 0xcde <_Z10SetPinModehb+0x4c>
     cb4:	8d 30       	cpi	r24, 0x0D	; 13
     cb6:	91 05       	cpc	r25, r1
     cb8:	11 f1       	breq	.+68     	; 0xcfe <_Z10SetPinModehb+0x6c>
     cba:	0b 97       	sbiw	r24, 0x0b	; 11
     cbc:	79 f5       	brne	.+94     	; 0xd1c <_Z10SetPinModehb+0x8a>
     cbe:	cf 70       	andi	r28, 0x0F	; 15
	{
		case 0xB:
		{
			if(bMode) DDRB |= (1 << (pin & 0xf));
     cc0:	27 b3       	in	r18, 0x17	; 23
     cc2:	81 e0       	ldi	r24, 0x01	; 1
     cc4:	90 e0       	ldi	r25, 0x00	; 0
     cc6:	01 c0       	rjmp	.+2      	; 0xcca <_Z10SetPinModehb+0x38>
     cc8:	88 0f       	add	r24, r24
     cca:	ca 95       	dec	r28
     ccc:	ea f7       	brpl	.-6      	; 0xcc8 <_Z10SetPinModehb+0x36>
     cce:	dd 23       	and	r29, r29
     cd0:	11 f0       	breq	.+4      	; 0xcd6 <_Z10SetPinModehb+0x44>
     cd2:	82 2b       	or	r24, r18
     cd4:	02 c0       	rjmp	.+4      	; 0xcda <_Z10SetPinModehb+0x48>
			else DDRB &= ~(1 << (pin & 0xf));
     cd6:	80 95       	com	r24
     cd8:	82 23       	and	r24, r18
     cda:	87 bb       	out	0x17, r24	; 23
     cdc:	1f c0       	rjmp	.+62     	; 0xd1c <_Z10SetPinModehb+0x8a>
     cde:	cf 70       	andi	r28, 0x0F	; 15
			break;
		}
		case 0xC:
		{
			if(bMode) DDRC |= (1 << (pin & 0xf));
     ce0:	24 b3       	in	r18, 0x14	; 20
     ce2:	81 e0       	ldi	r24, 0x01	; 1
     ce4:	90 e0       	ldi	r25, 0x00	; 0
     ce6:	01 c0       	rjmp	.+2      	; 0xcea <_Z10SetPinModehb+0x58>
     ce8:	88 0f       	add	r24, r24
     cea:	ca 95       	dec	r28
     cec:	ea f7       	brpl	.-6      	; 0xce8 <_Z10SetPinModehb+0x56>
     cee:	dd 23       	and	r29, r29
     cf0:	11 f0       	breq	.+4      	; 0xcf6 <_Z10SetPinModehb+0x64>
     cf2:	82 2b       	or	r24, r18
     cf4:	02 c0       	rjmp	.+4      	; 0xcfa <_Z10SetPinModehb+0x68>
			else DDRC &= ~(1 << (pin & 0xf));
     cf6:	80 95       	com	r24
     cf8:	82 23       	and	r24, r18
     cfa:	84 bb       	out	0x14, r24	; 20
     cfc:	0f c0       	rjmp	.+30     	; 0xd1c <_Z10SetPinModehb+0x8a>
     cfe:	cf 70       	andi	r28, 0x0F	; 15
			break;
		}
		case 0xD:
		{
			if(bMode) DDRD |= (1 << (pin & 0xf));
     d00:	21 b3       	in	r18, 0x11	; 17
     d02:	81 e0       	ldi	r24, 0x01	; 1
     d04:	90 e0       	ldi	r25, 0x00	; 0
     d06:	01 c0       	rjmp	.+2      	; 0xd0a <_Z10SetPinModehb+0x78>
     d08:	88 0f       	add	r24, r24
     d0a:	ca 95       	dec	r28
     d0c:	ea f7       	brpl	.-6      	; 0xd08 <_Z10SetPinModehb+0x76>
     d0e:	dd 23       	and	r29, r29
     d10:	11 f0       	breq	.+4      	; 0xd16 <_Z10SetPinModehb+0x84>
     d12:	82 2b       	or	r24, r18
     d14:	02 c0       	rjmp	.+4      	; 0xd1a <_Z10SetPinModehb+0x88>
			else DDRD &= ~(1 << (pin & 0xf));
     d16:	80 95       	com	r24
     d18:	82 23       	and	r24, r18
     d1a:	81 bb       	out	0x11, r24	; 17
			break;
		}
	}
}
     d1c:	df 91       	pop	r29
     d1e:	cf 91       	pop	r28
     d20:	08 95       	ret

00000d22 <_Z12DigitalWritehb>:

void DigitalWrite(PINS pin, bool val)
{
     d22:	cf 93       	push	r28
     d24:	df 93       	push	r29
     d26:	c8 2f       	mov	r28, r24
     d28:	d6 2f       	mov	r29, r22
	if(!IsPinValid(pin))
     d2a:	9f df       	rcall	.-194    	; 0xc6a <_Z10IsPinValidh>
     d2c:	88 23       	and	r24, r24
     d2e:	f1 f1       	breq	.+124    	; 0xdac <_Z12DigitalWritehb+0x8a>
		return;
	
	switch(pin >> 4)
     d30:	8c 2f       	mov	r24, r28
     d32:	90 e0       	ldi	r25, 0x00	; 0
     d34:	24 e0       	ldi	r18, 0x04	; 4
     d36:	95 95       	asr	r25
     d38:	87 95       	ror	r24
     d3a:	2a 95       	dec	r18
     d3c:	e1 f7       	brne	.-8      	; 0xd36 <_Z12DigitalWritehb+0x14>
     d3e:	8c 30       	cpi	r24, 0x0C	; 12
     d40:	91 05       	cpc	r25, r1
     d42:	a9 f0       	breq	.+42     	; 0xd6e <_Z12DigitalWritehb+0x4c>
     d44:	8d 30       	cpi	r24, 0x0D	; 13
     d46:	91 05       	cpc	r25, r1
     d48:	11 f1       	breq	.+68     	; 0xd8e <_Z12DigitalWritehb+0x6c>
     d4a:	0b 97       	sbiw	r24, 0x0b	; 11
     d4c:	79 f5       	brne	.+94     	; 0xdac <_Z12DigitalWritehb+0x8a>
     d4e:	cf 70       	andi	r28, 0x0F	; 15
	{
		case 0xB:
		{
			if(val) PORTB |= (1 << (pin & 0xf));
     d50:	28 b3       	in	r18, 0x18	; 24
     d52:	81 e0       	ldi	r24, 0x01	; 1
     d54:	90 e0       	ldi	r25, 0x00	; 0
     d56:	01 c0       	rjmp	.+2      	; 0xd5a <_Z12DigitalWritehb+0x38>
     d58:	88 0f       	add	r24, r24
     d5a:	ca 95       	dec	r28
     d5c:	ea f7       	brpl	.-6      	; 0xd58 <_Z12DigitalWritehb+0x36>
     d5e:	dd 23       	and	r29, r29
     d60:	11 f0       	breq	.+4      	; 0xd66 <_Z12DigitalWritehb+0x44>
     d62:	82 2b       	or	r24, r18
     d64:	02 c0       	rjmp	.+4      	; 0xd6a <_Z12DigitalWritehb+0x48>
			else PORTB &= ~(1 << (pin & 0xf));
     d66:	80 95       	com	r24
     d68:	82 23       	and	r24, r18
     d6a:	88 bb       	out	0x18, r24	; 24
     d6c:	1f c0       	rjmp	.+62     	; 0xdac <_Z12DigitalWritehb+0x8a>
     d6e:	cf 70       	andi	r28, 0x0F	; 15
			break;
		}
		case 0xC:
		{
			if(val) PORTC |= (1 << (pin & 0xf));
     d70:	25 b3       	in	r18, 0x15	; 21
     d72:	81 e0       	ldi	r24, 0x01	; 1
     d74:	90 e0       	ldi	r25, 0x00	; 0
     d76:	01 c0       	rjmp	.+2      	; 0xd7a <_Z12DigitalWritehb+0x58>
     d78:	88 0f       	add	r24, r24
     d7a:	ca 95       	dec	r28
     d7c:	ea f7       	brpl	.-6      	; 0xd78 <_Z12DigitalWritehb+0x56>
     d7e:	dd 23       	and	r29, r29
     d80:	11 f0       	breq	.+4      	; 0xd86 <_Z12DigitalWritehb+0x64>
     d82:	82 2b       	or	r24, r18
     d84:	02 c0       	rjmp	.+4      	; 0xd8a <_Z12DigitalWritehb+0x68>
			else PORTC &= ~(1 << (pin & 0xf));
     d86:	80 95       	com	r24
     d88:	82 23       	and	r24, r18
     d8a:	85 bb       	out	0x15, r24	; 21
     d8c:	0f c0       	rjmp	.+30     	; 0xdac <_Z12DigitalWritehb+0x8a>
     d8e:	cf 70       	andi	r28, 0x0F	; 15
			break;
		}
		case 0xD:
		{
			if(val) PORTD |= (1 << (pin & 0xf));
     d90:	22 b3       	in	r18, 0x12	; 18
     d92:	81 e0       	ldi	r24, 0x01	; 1
     d94:	90 e0       	ldi	r25, 0x00	; 0
     d96:	01 c0       	rjmp	.+2      	; 0xd9a <_Z12DigitalWritehb+0x78>
     d98:	88 0f       	add	r24, r24
     d9a:	ca 95       	dec	r28
     d9c:	ea f7       	brpl	.-6      	; 0xd98 <_Z12DigitalWritehb+0x76>
     d9e:	dd 23       	and	r29, r29
     da0:	11 f0       	breq	.+4      	; 0xda6 <_Z12DigitalWritehb+0x84>
     da2:	82 2b       	or	r24, r18
     da4:	02 c0       	rjmp	.+4      	; 0xdaa <_Z12DigitalWritehb+0x88>
			else PORTD &= ~(1 << (pin & 0xf));
     da6:	80 95       	com	r24
     da8:	82 23       	and	r24, r18
     daa:	82 bb       	out	0x12, r24	; 18
			break;
		}
	}
}
     dac:	df 91       	pop	r29
     dae:	cf 91       	pop	r28
     db0:	08 95       	ret

00000db2 <_Z11DigitalReadh>:

bool DigitalRead(PINS pin)
{
     db2:	cf 93       	push	r28
     db4:	c8 2f       	mov	r28, r24
	if(!IsPinValid(pin))
     db6:	59 df       	rcall	.-334    	; 0xc6a <_Z10IsPinValidh>
     db8:	88 23       	and	r24, r24
     dba:	f1 f0       	breq	.+60     	; 0xdf8 <_Z11DigitalReadh+0x46>
		return 0;
	
	switch(pin >> 4)
     dbc:	8c 2f       	mov	r24, r28
     dbe:	90 e0       	ldi	r25, 0x00	; 0
     dc0:	24 e0       	ldi	r18, 0x04	; 4
     dc2:	95 95       	asr	r25
     dc4:	87 95       	ror	r24
     dc6:	2a 95       	dec	r18
     dc8:	e1 f7       	brne	.-8      	; 0xdc2 <_Z11DigitalReadh+0x10>
     dca:	8c 30       	cpi	r24, 0x0C	; 12
     dcc:	91 05       	cpc	r25, r1
     dce:	39 f0       	breq	.+14     	; 0xdde <_Z11DigitalReadh+0x2c>
     dd0:	8d 30       	cpi	r24, 0x0D	; 13
     dd2:	91 05       	cpc	r25, r1
     dd4:	31 f0       	breq	.+12     	; 0xde2 <_Z11DigitalReadh+0x30>
     dd6:	0b 97       	sbiw	r24, 0x0b	; 11
     dd8:	71 f4       	brne	.+28     	; 0xdf6 <_Z11DigitalReadh+0x44>
	{
		case 0xB:
		{
			return (PINB & (1 << (pin & 0xf) ));
     dda:	86 b3       	in	r24, 0x16	; 22
     ddc:	03 c0       	rjmp	.+6      	; 0xde4 <_Z11DigitalReadh+0x32>
		}
		case 0xC:
		{
			return (PINC & (1 << (pin & 0xf) ));
     dde:	83 b3       	in	r24, 0x13	; 19
     de0:	01 c0       	rjmp	.+2      	; 0xde4 <_Z11DigitalReadh+0x32>
		}
		case 0xD:
		{
			return (PIND & (1 << (pin & 0xf) ));
     de2:	80 b3       	in	r24, 0x10	; 16
     de4:	90 e0       	ldi	r25, 0x00	; 0
     de6:	cf 70       	andi	r28, 0x0F	; 15
     de8:	02 c0       	rjmp	.+4      	; 0xdee <_Z11DigitalReadh+0x3c>
     dea:	95 95       	asr	r25
     dec:	87 95       	ror	r24
     dee:	ca 95       	dec	r28
     df0:	e2 f7       	brpl	.-8      	; 0xdea <_Z11DigitalReadh+0x38>
     df2:	81 70       	andi	r24, 0x01	; 1
     df4:	01 c0       	rjmp	.+2      	; 0xdf8 <_Z11DigitalReadh+0x46>
		}
		default: 
		{
			return 0;
     df6:	80 e0       	ldi	r24, 0x00	; 0
		}
	}
}
     df8:	cf 91       	pop	r28
     dfa:	08 95       	ret

00000dfc <_Z17DigitalWrite_Fasthhb>:
	return false;
}

void DigitalWrite_Fast(uint8_t pin_group, uint8_t pin_number_shifted, bool val)
{
	switch(pin_group)
     dfc:	8c 30       	cpi	r24, 0x0C	; 12
     dfe:	69 f0       	breq	.+26     	; 0xe1a <_Z17DigitalWrite_Fasthhb+0x1e>
     e00:	8d 30       	cpi	r24, 0x0D	; 13
     e02:	a1 f0       	breq	.+40     	; 0xe2c <_Z17DigitalWrite_Fasthhb+0x30>
     e04:	8b 30       	cpi	r24, 0x0B	; 11
     e06:	d1 f4       	brne	.+52     	; 0xe3c <_Z17DigitalWrite_Fasthhb+0x40>
	{
		case 0xB:
		{
			if(val) PORTB |= pin_number_shifted;
     e08:	88 b3       	in	r24, 0x18	; 24
     e0a:	44 23       	and	r20, r20
     e0c:	11 f0       	breq	.+4      	; 0xe12 <_Z17DigitalWrite_Fasthhb+0x16>
     e0e:	68 2b       	or	r22, r24
     e10:	02 c0       	rjmp	.+4      	; 0xe16 <_Z17DigitalWrite_Fasthhb+0x1a>
			else PORTB &= ~pin_number_shifted;
     e12:	60 95       	com	r22
     e14:	68 23       	and	r22, r24
     e16:	68 bb       	out	0x18, r22	; 24
     e18:	08 95       	ret
			break;
		}
		case 0xC:
		{
			if(val) PORTC |= pin_number_shifted;
     e1a:	85 b3       	in	r24, 0x15	; 21
     e1c:	44 23       	and	r20, r20
     e1e:	11 f0       	breq	.+4      	; 0xe24 <_Z17DigitalWrite_Fasthhb+0x28>
     e20:	68 2b       	or	r22, r24
     e22:	02 c0       	rjmp	.+4      	; 0xe28 <_Z17DigitalWrite_Fasthhb+0x2c>
			else PORTC &= ~pin_number_shifted;
     e24:	60 95       	com	r22
     e26:	68 23       	and	r22, r24
     e28:	65 bb       	out	0x15, r22	; 21
     e2a:	08 95       	ret
			break;
		}
		case 0xD:
		{
			if(val) PORTD |= pin_number_shifted;
     e2c:	82 b3       	in	r24, 0x12	; 18
     e2e:	44 23       	and	r20, r20
     e30:	11 f0       	breq	.+4      	; 0xe36 <_Z17DigitalWrite_Fasthhb+0x3a>
     e32:	68 2b       	or	r22, r24
     e34:	02 c0       	rjmp	.+4      	; 0xe3a <_Z17DigitalWrite_Fasthhb+0x3e>
			else PORTD &= ~pin_number_shifted;
     e36:	60 95       	com	r22
     e38:	68 23       	and	r22, r24
     e3a:	62 bb       	out	0x12, r22	; 18
     e3c:	08 95       	ret

00000e3e <_Z9quick_sini>:
	0.91, 0.91, 0.92, 0.93, 0.93, 0.94, 0.95, 0.95, 0.96, 0.96, 0.97, 0.97, 0.97, 
	0.98, 0.98, 0.98, 0.99, 0.99, 0.99, 0.99, 1.00, 1.00, 1.00, 1.00, 1.00, 1.00
};

float quick_sin(int deg)
{
     e3e:	cf 92       	push	r12
     e40:	df 92       	push	r13
     e42:	ef 92       	push	r14
     e44:	ff 92       	push	r15
     e46:	0f 93       	push	r16
     e48:	1f 93       	push	r17
     e4a:	cf 93       	push	r28
     e4c:	df 93       	push	r29
     e4e:	00 d0       	rcall	.+0      	; 0xe50 <_Z9quick_sini+0x12>
     e50:	00 d0       	rcall	.+0      	; 0xe52 <_Z9quick_sini+0x14>
     e52:	cd b7       	in	r28, 0x3d	; 61
     e54:	de b7       	in	r29, 0x3e	; 62
	if(deg < 0)
		return -quick_sin(-deg);
	if(deg >= 180)
		return -quick_sin(deg - 180);
	if(deg > 90 && deg < 180)
		return quick_sin(180 - deg);
     e56:	24 eb       	ldi	r18, 0xB4	; 180
     e58:	30 e0       	ldi	r19, 0x00	; 0
	0.98, 0.98, 0.98, 0.99, 0.99, 0.99, 0.99, 1.00, 1.00, 1.00, 1.00, 1.00, 1.00
};

float quick_sin(int deg)
{
	if(deg >= 0 && deg <= 90)
     e5a:	8b 35       	cpi	r24, 0x5B	; 91
     e5c:	91 05       	cpc	r25, r1
     e5e:	00 f5       	brcc	.+64     	; 0xea0 <_Z9quick_sini+0x62>
	{
		//return _quick_sin_dat[deg];/**/
		char float_dat[4];
		for(int i = 0; i  < 4; i ++)
			float_dat[i] = eeprom_read_byte((uint8_t *)_quick_sin_dat + deg * 4 + i);
     e60:	8c 01       	movw	r16, r24
     e62:	00 0f       	add	r16, r16
     e64:	11 1f       	adc	r17, r17
     e66:	00 0f       	add	r16, r16
     e68:	11 1f       	adc	r17, r17
     e6a:	ae 01       	movw	r20, r28
     e6c:	4f 5f       	subi	r20, 0xFF	; 255
     e6e:	5f 4f       	sbci	r21, 0xFF	; 255
     e70:	6a 01       	movw	r12, r20
     e72:	e1 2c       	mov	r14, r1
     e74:	f1 2c       	mov	r15, r1
     e76:	c7 01       	movw	r24, r14
     e78:	80 0f       	add	r24, r16
     e7a:	91 1f       	adc	r25, r17
     e7c:	8c 5a       	subi	r24, 0xAC	; 172
     e7e:	9f 4f       	sbci	r25, 0xFF	; 255
     e80:	59 d8       	rcall	.-3918   	; 0xffffff34 <__eeprom_end+0xff7efd74>
     e82:	f6 01       	movw	r30, r12
     e84:	81 93       	st	Z+, r24
     e86:	6f 01       	movw	r12, r30
{
	if(deg >= 0 && deg <= 90)
	{
		//return _quick_sin_dat[deg];/**/
		char float_dat[4];
		for(int i = 0; i  < 4; i ++)
     e88:	ff ef       	ldi	r31, 0xFF	; 255
     e8a:	ef 1a       	sub	r14, r31
     e8c:	ff 0a       	sbc	r15, r31
     e8e:	44 e0       	ldi	r20, 0x04	; 4
     e90:	e4 16       	cp	r14, r20
     e92:	f1 04       	cpc	r15, r1
     e94:	81 f7       	brne	.-32     	; 0xe76 <_Z9quick_sini+0x38>
			float_dat[i] = eeprom_read_byte((uint8_t *)_quick_sin_dat + deg * 4 + i);
		float ans;
		memcpy(&ans, float_dat, 4);
     e96:	69 81       	ldd	r22, Y+1	; 0x01
     e98:	7a 81       	ldd	r23, Y+2	; 0x02
     e9a:	8b 81       	ldd	r24, Y+3	; 0x03
     e9c:	9c 81       	ldd	r25, Y+4	; 0x04
     e9e:	1c c0       	rjmp	.+56     	; 0xed8 <_Z9quick_sini+0x9a>
		return ans;
		//return eeprom_read_byte((int *)(&_quick_sin_dat[deg]));
	}

	if(deg < 0)
     ea0:	97 ff       	sbrs	r25, 7
     ea2:	04 c0       	rjmp	.+8      	; 0xeac <_Z9quick_sini+0x6e>
		return -quick_sin(-deg);
     ea4:	91 95       	neg	r25
     ea6:	81 95       	neg	r24
     ea8:	91 09       	sbc	r25, r1
     eaa:	05 c0       	rjmp	.+10     	; 0xeb6 <_Z9quick_sini+0x78>
	if(deg >= 180)
     eac:	84 3b       	cpi	r24, 0xB4	; 180
     eae:	91 05       	cpc	r25, r1
     eb0:	2c f0       	brlt	.+10     	; 0xebc <_Z9quick_sini+0x7e>
		return -quick_sin(deg - 180);
     eb2:	84 5b       	subi	r24, 0xB4	; 180
     eb4:	91 09       	sbc	r25, r1
     eb6:	c3 df       	rcall	.-122    	; 0xe3e <_Z9quick_sini>
     eb8:	90 58       	subi	r25, 0x80	; 128
     eba:	0e c0       	rjmp	.+28     	; 0xed8 <_Z9quick_sini+0x9a>
	if(deg > 90 && deg < 180)
     ebc:	ac 01       	movw	r20, r24
     ebe:	4b 55       	subi	r20, 0x5B	; 91
     ec0:	51 09       	sbc	r21, r1
     ec2:	49 35       	cpi	r20, 0x59	; 89
     ec4:	51 05       	cpc	r21, r1
     ec6:	28 f4       	brcc	.+10     	; 0xed2 <_Z9quick_sini+0x94>
		return quick_sin(180 - deg);
     ec8:	f9 01       	movw	r30, r18
     eca:	e8 1b       	sub	r30, r24
     ecc:	f9 0b       	sbc	r31, r25
     ece:	cf 01       	movw	r24, r30
     ed0:	c4 cf       	rjmp	.-120    	; 0xe5a <_Z9quick_sini+0x1c>
	// assert(false);
	return 0;
     ed2:	60 e0       	ldi	r22, 0x00	; 0
     ed4:	70 e0       	ldi	r23, 0x00	; 0
     ed6:	cb 01       	movw	r24, r22
}
     ed8:	0f 90       	pop	r0
     eda:	0f 90       	pop	r0
     edc:	0f 90       	pop	r0
     ede:	0f 90       	pop	r0
     ee0:	df 91       	pop	r29
     ee2:	cf 91       	pop	r28
     ee4:	1f 91       	pop	r17
     ee6:	0f 91       	pop	r16
     ee8:	ff 90       	pop	r15
     eea:	ef 90       	pop	r14
     eec:	df 90       	pop	r13
     eee:	cf 90       	pop	r12
     ef0:	08 95       	ret

00000ef2 <_Z9quick_cosi>:

float quick_cos(int deg)
{	
	return quick_sin(deg + 90);
     ef2:	86 5a       	subi	r24, 0xA6	; 166
     ef4:	9f 4f       	sbci	r25, 0xFF	; 255
     ef6:	a3 cf       	rjmp	.-186    	; 0xe3e <_Z9quick_sini>

00000ef8 <_ZN5SERVO11SendPWMFuncEv>:
const int32_t k_deg_to_pulsew = (MAX_PULSE_WIDTH - MIN_PULSE_WIDTH) / 180;
//#define GetPulseWidthFromPos(pos) (k_deg_to_pulsew * (pos) + MIN_PULSE_WIDTH)
int32_t GetPulseWidthFromPos(int32_t pos)
{
	return (k_deg_to_pulsew * (pos) + MIN_PULSE_WIDTH);
}
     ef8:	cf 92       	push	r12
     efa:	df 92       	push	r13
     efc:	ef 92       	push	r14
     efe:	ff 92       	push	r15
     f00:	80 91 81 03 	lds	r24, 0x0381	; 0x800381 <_ZN5SERVO15setpos_progressE>
     f04:	8f 5f       	subi	r24, 0xFF	; 255
     f06:	80 93 81 03 	sts	0x0381, r24	; 0x800381 <_ZN5SERVO15setpos_progressE>
     f0a:	80 91 7e 03 	lds	r24, 0x037E	; 0x80037e <_ZL15bSendingPWMHigh>
     f0e:	e0 91 7f 03 	lds	r30, 0x037F	; 0x80037f <_ZN5SERVO12setpos_servoE>
     f12:	f0 91 80 03 	lds	r31, 0x0380	; 0x800380 <_ZN5SERVO12setpos_servoE+0x1>
     f16:	81 11       	cpse	r24, r1
     f18:	27 c0       	rjmp	.+78     	; 0xf68 <_ZN5SERVO11SendPWMFuncEv+0x70>
     f1a:	64 81       	ldd	r22, Z+4	; 0x04
     f1c:	75 81       	ldd	r23, Z+5	; 0x05
     f1e:	86 81       	ldd	r24, Z+6	; 0x06
     f20:	97 81       	ldd	r25, Z+7	; 0x07
     f22:	6b 01       	movw	r12, r22
     f24:	7c 01       	movw	r14, r24
     f26:	34 e0       	ldi	r19, 0x04	; 4
     f28:	cc 0c       	add	r12, r12
     f2a:	dd 1c       	adc	r13, r13
     f2c:	ee 1c       	adc	r14, r14
     f2e:	ff 1c       	adc	r15, r15
     f30:	3a 95       	dec	r19
     f32:	d1 f7       	brne	.-12     	; 0xf28 <_ZN5SERVO11SendPWMFuncEv+0x30>
     f34:	43 e0       	ldi	r20, 0x03	; 3
     f36:	f6 94       	lsr	r15
     f38:	e7 94       	ror	r14
     f3a:	d7 94       	ror	r13
     f3c:	c7 94       	ror	r12
     f3e:	4a 95       	dec	r20
     f40:	d1 f7       	brne	.-12     	; 0xf36 <_ZN5SERVO11SendPWMFuncEv+0x3e>
     f42:	96 01       	movw	r18, r12
     f44:	20 95       	com	r18
     f46:	30 95       	com	r19
     f48:	3d bd       	out	0x2d, r19	; 45
     f4a:	2c bd       	out	0x2c, r18	; 44
     f4c:	48 e0       	ldi	r20, 0x08	; 8
     f4e:	c1 d1       	rcall	.+898    	; 0x12d2 <_Z20__ResetTimerIntervallh>
     f50:	e0 91 7f 03 	lds	r30, 0x037F	; 0x80037f <_ZN5SERVO12setpos_servoE>
     f54:	f0 91 80 03 	lds	r31, 0x0380	; 0x800380 <_ZN5SERVO12setpos_servoE+0x1>
     f58:	41 e0       	ldi	r20, 0x01	; 1
     f5a:	63 81       	ldd	r22, Z+3	; 0x03
     f5c:	82 81       	ldd	r24, Z+2	; 0x02
     f5e:	4e df       	rcall	.-356    	; 0xdfc <_Z17DigitalWrite_Fasthhb>
     f60:	81 e0       	ldi	r24, 0x01	; 1
     f62:	80 93 7e 03 	sts	0x037E, r24	; 0x80037e <_ZL15bSendingPWMHigh>
     f66:	3f c0       	rjmp	.+126    	; 0xfe6 <_ZN5SERVO11SendPWMFuncEv+0xee>
     f68:	c4 80       	ldd	r12, Z+4	; 0x04
     f6a:	d5 80       	ldd	r13, Z+5	; 0x05
     f6c:	e6 80       	ldd	r14, Z+6	; 0x06
     f6e:	f7 80       	ldd	r15, Z+7	; 0x07
     f70:	a0 ef       	ldi	r26, 0xF0	; 240
     f72:	bf ef       	ldi	r27, 0xFF	; 255
     f74:	a7 01       	movw	r20, r14
     f76:	96 01       	movw	r18, r12
     f78:	32 d5       	rcall	.+2660   	; 0x19de <__mulohisi3>
     f7a:	dc 01       	movw	r26, r24
     f7c:	cb 01       	movw	r24, r22
     f7e:	9e 51       	subi	r25, 0x1E	; 30
     f80:	ab 4f       	sbci	r26, 0xFB	; 251
     f82:	bf 4f       	sbci	r27, 0xFF	; 255
     f84:	23 e0       	ldi	r18, 0x03	; 3
     f86:	b6 95       	lsr	r27
     f88:	a7 95       	ror	r26
     f8a:	97 95       	ror	r25
     f8c:	87 95       	ror	r24
     f8e:	2a 95       	dec	r18
     f90:	d1 f7       	brne	.-12     	; 0xf86 <_ZN5SERVO11SendPWMFuncEv+0x8e>
     f92:	bc 01       	movw	r22, r24
     f94:	60 95       	com	r22
     f96:	70 95       	com	r23
     f98:	7d bd       	out	0x2d, r23	; 45
     f9a:	6c bd       	out	0x2c, r22	; 44
     f9c:	80 e2       	ldi	r24, 0x20	; 32
     f9e:	9e e4       	ldi	r25, 0x4E	; 78
     fa0:	a0 e0       	ldi	r26, 0x00	; 0
     fa2:	b0 e0       	ldi	r27, 0x00	; 0
     fa4:	bc 01       	movw	r22, r24
     fa6:	cd 01       	movw	r24, r26
     fa8:	6c 19       	sub	r22, r12
     faa:	7d 09       	sbc	r23, r13
     fac:	8e 09       	sbc	r24, r14
     fae:	9f 09       	sbc	r25, r15
     fb0:	48 e0       	ldi	r20, 0x08	; 8
     fb2:	8f d1       	rcall	.+798    	; 0x12d2 <_Z20__ResetTimerIntervallh>
     fb4:	e0 91 7f 03 	lds	r30, 0x037F	; 0x80037f <_ZN5SERVO12setpos_servoE>
     fb8:	f0 91 80 03 	lds	r31, 0x0380	; 0x800380 <_ZN5SERVO12setpos_servoE+0x1>
     fbc:	40 e0       	ldi	r20, 0x00	; 0
     fbe:	63 81       	ldd	r22, Z+3	; 0x03
     fc0:	82 81       	ldd	r24, Z+2	; 0x02
     fc2:	1c df       	rcall	.-456    	; 0xdfc <_Z17DigitalWrite_Fasthhb>
     fc4:	10 92 7e 03 	sts	0x037E, r1	; 0x80037e <_ZL15bSendingPWMHigh>
     fc8:	e0 91 7f 03 	lds	r30, 0x037F	; 0x80037f <_ZN5SERVO12setpos_servoE>
     fcc:	f0 91 80 03 	lds	r31, 0x0380	; 0x800380 <_ZN5SERVO12setpos_servoE+0x1>
     fd0:	90 85       	ldd	r25, Z+8	; 0x08
     fd2:	80 91 81 03 	lds	r24, 0x0381	; 0x800381 <_ZN5SERVO15setpos_progressE>
     fd6:	89 17       	cp	r24, r25
     fd8:	30 f0       	brcs	.+12     	; 0xfe6 <_ZN5SERVO11SendPWMFuncEv+0xee>
     fda:	89 d1       	rcall	.+786    	; 0x12ee <_Z9KillTimerv>
     fdc:	10 92 81 03 	sts	0x0381, r1	; 0x800381 <_ZN5SERVO15setpos_progressE>
     fe0:	81 e0       	ldi	r24, 0x01	; 1
     fe2:	80 93 64 00 	sts	0x0064, r24	; 0x800064 <_ZN5SERVO19is_setpos_availableE>
     fe6:	ff 90       	pop	r15
     fe8:	ef 90       	pop	r14
     fea:	df 90       	pop	r13
     fec:	cf 90       	pop	r12
     fee:	08 95       	ret

00000ff0 <_ZN5SERVOC1Ev>:
     ff0:	2f ef       	ldi	r18, 0xFF	; 255
     ff2:	fc 01       	movw	r30, r24
     ff4:	20 83       	st	Z, r18
     ff6:	21 83       	std	Z+1, r18	; 0x01
     ff8:	08 95       	ret

00000ffa <_ZN5SERVO6AttachEh>:
     ffa:	fc 01       	movw	r30, r24
     ffc:	86 2f       	mov	r24, r22
     ffe:	60 83       	st	Z, r22
    1000:	26 2f       	mov	r18, r22
    1002:	30 e0       	ldi	r19, 0x00	; 0
    1004:	94 e0       	ldi	r25, 0x04	; 4
    1006:	35 95       	asr	r19
    1008:	27 95       	ror	r18
    100a:	9a 95       	dec	r25
    100c:	e1 f7       	brne	.-8      	; 0x1006 <_ZN5SERVO6AttachEh+0xc>
    100e:	22 83       	std	Z+2, r18	; 0x02
    1010:	26 2f       	mov	r18, r22
    1012:	2f 70       	andi	r18, 0x0F	; 15
    1014:	91 e0       	ldi	r25, 0x01	; 1
    1016:	01 c0       	rjmp	.+2      	; 0x101a <_ZN5SERVO6AttachEh+0x20>
    1018:	99 0f       	add	r25, r25
    101a:	2a 95       	dec	r18
    101c:	ea f7       	brpl	.-6      	; 0x1018 <_ZN5SERVO6AttachEh+0x1e>
    101e:	93 83       	std	Z+3, r25	; 0x03
    1020:	61 e0       	ldi	r22, 0x01	; 1
    1022:	37 ce       	rjmp	.-914    	; 0xc92 <_Z10SetPinModehb>

00001024 <_ZN5SERVO6SetPosEh>:

bool SERVO::SetPos(uint8_t pos)
{
    1024:	1f 93       	push	r17
    1026:	cf 93       	push	r28
    1028:	df 93       	push	r29
    102a:	ec 01       	movw	r28, r24
    102c:	16 2f       	mov	r17, r22
	sei();
    102e:	78 94       	sei
	while(SERVO::IsSetPosAvailable() == 0) // wait for other servos
    1030:	80 91 64 00 	lds	r24, 0x0064	; 0x800064 <_ZN5SERVO19is_setpos_availableE>
    1034:	81 11       	cpse	r24, r1
    1036:	04 c0       	rjmp	.+8      	; 0x1040 <_ZN5SERVO6SetPosEh+0x1c>
	{
		DigitalWrite(PINS_NULL, 0); // avoid being detected as a null no-end while loop 
    1038:	60 e0       	ldi	r22, 0x00	; 0
    103a:	87 ec       	ldi	r24, 0xC7	; 199
    103c:	72 de       	rcall	.-796    	; 0xd22 <_Z12DigitalWritehb>
}

bool SERVO::SetPos(uint8_t pos)
{
	sei();
	while(SERVO::IsSetPosAvailable() == 0) // wait for other servos
    103e:	f8 cf       	rjmp	.-16     	; 0x1030 <_ZN5SERVO6SetPosEh+0xc>
	/*
	if(SERVO::is_setpos_available == 0)
		return 0;
	*/
	
	SERVO::is_setpos_available = 0;
    1040:	10 92 64 00 	sts	0x0064, r1	; 0x800064 <_ZN5SERVO19is_setpos_availableE>
	SERVO::setpos_servo = this;
    1044:	d0 93 80 03 	sts	0x0380, r29	; 0x800380 <_ZN5SERVO12setpos_servoE+0x1>
    1048:	c0 93 7f 03 	sts	0x037F, r28	; 0x80037f <_ZN5SERVO12setpos_servoE>
	this->_setpos_progress_max = abs(pos - this->pos) * (50 - 10) / 180 + 10; // move 0 deg -> progress_max = 10; move 180 deg -> progress_max = 50
    104c:	21 2f       	mov	r18, r17
    104e:	30 e0       	ldi	r19, 0x00	; 0
    1050:	89 81       	ldd	r24, Y+1	; 0x01
    1052:	a9 01       	movw	r20, r18
    1054:	48 1b       	sub	r20, r24
    1056:	51 09       	sbc	r21, r1
    1058:	57 ff       	sbrs	r21, 7
    105a:	03 c0       	rjmp	.+6      	; 0x1062 <_ZN5SERVO6SetPosEh+0x3e>
    105c:	51 95       	neg	r21
    105e:	41 95       	neg	r20
    1060:	51 09       	sbc	r21, r1
    1062:	68 e2       	ldi	r22, 0x28	; 40
    1064:	64 9f       	mul	r22, r20
    1066:	c0 01       	movw	r24, r0
    1068:	65 9f       	mul	r22, r21
    106a:	90 0d       	add	r25, r0
    106c:	11 24       	eor	r1, r1
    106e:	64 eb       	ldi	r22, 0xB4	; 180
    1070:	70 e0       	ldi	r23, 0x00	; 0
    1072:	4c d4       	rcall	.+2200   	; 0x190c <__divmodhi4>
    1074:	66 5f       	subi	r22, 0xF6	; 246
    1076:	68 87       	std	Y+8, r22	; 0x08
	this->pos = pos;
    1078:	19 83       	std	Y+1, r17	; 0x01
	this->_pulse_width = GetPulseWidthFromPos(this->pos);
    107a:	ab e0       	ldi	r26, 0x0B	; 11
    107c:	b0 e0       	ldi	r27, 0x00	; 0
    107e:	97 d4       	rcall	.+2350   	; 0x19ae <__umulhisi3>
    1080:	dc 01       	movw	r26, r24
    1082:	cb 01       	movw	r24, r22
    1084:	8c 50       	subi	r24, 0x0C	; 12
    1086:	9e 4f       	sbci	r25, 0xFE	; 254
    1088:	af 4f       	sbci	r26, 0xFF	; 255
    108a:	bf 4f       	sbci	r27, 0xFF	; 255
    108c:	8c 83       	std	Y+4, r24	; 0x04
    108e:	9d 83       	std	Y+5, r25	; 0x05
    1090:	ae 83       	std	Y+6, r26	; 0x06
    1092:	bf 83       	std	Y+7, r27	; 0x07
	SetTimer(100, SERVO::SendPWMFunc, FRACFREQ);
    1094:	28 e0       	ldi	r18, 0x08	; 8
    1096:	30 e0       	ldi	r19, 0x00	; 0
    1098:	4c e7       	ldi	r20, 0x7C	; 124
    109a:	57 e0       	ldi	r21, 0x07	; 7
    109c:	64 e6       	ldi	r22, 0x64	; 100
    109e:	70 e0       	ldi	r23, 0x00	; 0
    10a0:	80 e0       	ldi	r24, 0x00	; 0
    10a2:	90 e0       	ldi	r25, 0x00	; 0
    10a4:	72 d0       	rcall	.+228    	; 0x118a <_Z8SetTimerlPFvvEj>
	//SetTimer(REFRESH_INTERVAL - this->_pulse_width,SERVO::SendPWMFunc, FRACFREQ);
	return 1;
}
    10a6:	81 e0       	ldi	r24, 0x01	; 1
    10a8:	df 91       	pop	r29
    10aa:	cf 91       	pop	r28
    10ac:	1f 91       	pop	r17
    10ae:	08 95       	ret

000010b0 <_ZN10ULTRASONICC1Ev>:

#include "ultrasonic.h"

ULTRASONIC::ULTRASONIC()
{
	this->pEcho = this->pTrig = PINS_ERR;
    10b0:	2f ef       	ldi	r18, 0xFF	; 255
    10b2:	fc 01       	movw	r30, r24
    10b4:	21 83       	std	Z+1, r18	; 0x01
    10b6:	20 83       	st	Z, r18
    10b8:	08 95       	ret

000010ba <_ZN10ULTRASONIC6AttachEhh>:
}

void ULTRASONIC::Attach(uint8_t pEcho, uint8_t pTrig)
{
    10ba:	cf 93       	push	r28
    10bc:	fc 01       	movw	r30, r24
    10be:	86 2f       	mov	r24, r22
    10c0:	c4 2f       	mov	r28, r20
	this->pEcho = pEcho;
    10c2:	60 83       	st	Z, r22
	this->pTrig = pTrig;
    10c4:	41 83       	std	Z+1, r20	; 0x01
	SetPinMode(pEcho, INPUT);
    10c6:	60 e0       	ldi	r22, 0x00	; 0
    10c8:	e4 dd       	rcall	.-1080   	; 0xc92 <_Z10SetPinModehb>
	SetPinMode(pTrig, OUTPUT);
    10ca:	61 e0       	ldi	r22, 0x01	; 1
    10cc:	8c 2f       	mov	r24, r28
}
    10ce:	cf 91       	pop	r28
void ULTRASONIC::Attach(uint8_t pEcho, uint8_t pTrig)
{
	this->pEcho = pEcho;
	this->pTrig = pTrig;
	SetPinMode(pEcho, INPUT);
	SetPinMode(pTrig, OUTPUT);
    10d0:	e0 cd       	rjmp	.-1088   	; 0xc92 <_Z10SetPinModehb>

000010d2 <_ZN10ULTRASONIC11GetDistanceEv>:
}

uint16_t ULTRASONIC::GetDistance()
{
    10d2:	cf 92       	push	r12
    10d4:	df 92       	push	r13
    10d6:	ef 92       	push	r14
    10d8:	ff 92       	push	r15
    10da:	0f 93       	push	r16
    10dc:	1f 93       	push	r17
    10de:	cf 93       	push	r28
    10e0:	df 93       	push	r29
    10e2:	ec 01       	movw	r28, r24
	if(!IsPinValid(this->pEcho) || !IsPinValid(this->pTrig))
    10e4:	88 81       	ld	r24, Y
    10e6:	c1 dd       	rcall	.-1150   	; 0xc6a <_Z10IsPinValidh>
    10e8:	88 23       	and	r24, r24
    10ea:	21 f0       	breq	.+8      	; 0x10f4 <_ZN10ULTRASONIC11GetDistanceEv+0x22>
    10ec:	89 81       	ldd	r24, Y+1	; 0x01
    10ee:	bd dd       	rcall	.-1158   	; 0xc6a <_Z10IsPinValidh>
    10f0:	81 11       	cpse	r24, r1
    10f2:	03 c0       	rjmp	.+6      	; 0x10fa <_ZN10ULTRASONIC11GetDistanceEv+0x28>
		return 0;
    10f4:	80 e0       	ldi	r24, 0x00	; 0
    10f6:	90 e0       	ldi	r25, 0x00	; 0
    10f8:	3f c0       	rjmp	.+126    	; 0x1178 <_ZN10ULTRASONIC11GetDistanceEv+0xa6>
		
	
	uint16_t overtime_cnt = 0;
	
	DigitalWrite(this->pTrig, 1); // start signal
    10fa:	61 e0       	ldi	r22, 0x01	; 1
    10fc:	89 81       	ldd	r24, Y+1	; 0x01
    10fe:	11 de       	rcall	.-990    	; 0xd22 <_Z12DigitalWritehb>
	#else
		//round up by default
		__ticks_dc = (uint32_t)(ceil(fabs(__tmp)));
	#endif

	__builtin_avr_delay_cycles(__ticks_dc);
    1100:	3a e6       	ldi	r19, 0x6A	; 106
    1102:	3a 95       	dec	r19
    1104:	f1 f7       	brne	.-4      	; 0x1102 <_ZN10ULTRASONIC11GetDistanceEv+0x30>
    1106:	00 c0       	rjmp	.+0      	; 0x1108 <_ZN10ULTRASONIC11GetDistanceEv+0x36>
	_delay_us(20);
	DigitalWrite(this->pTrig, 0);
    1108:	60 e0       	ldi	r22, 0x00	; 0
    110a:	89 81       	ldd	r24, Y+1	; 0x01
    110c:	0a de       	rcall	.-1004   	; 0xd22 <_Z12DigitalWritehb>
    110e:	09 e2       	ldi	r16, 0x29	; 41
    1110:	13 e2       	ldi	r17, 0x23	; 35
	
	while(DigitalRead(this->pEcho) == 0) // wait while no echo
    1112:	88 81       	ld	r24, Y
    1114:	4e de       	rcall	.-868    	; 0xdb2 <_Z11DigitalReadh>
    1116:	81 11       	cpse	r24, r1
    1118:	03 c0       	rjmp	.+6      	; 0x1120 <_ZN10ULTRASONIC11GetDistanceEv+0x4e>
    111a:	01 50       	subi	r16, 0x01	; 1
    111c:	11 09       	sbc	r17, r1
	{
		overtime_cnt ++;
		if(overtime_cnt > 9000)
    111e:	c9 f7       	brne	.-14     	; 0x1112 <_ZN10ULTRASONIC11GetDistanceEv+0x40>
			break;
	}
	
	uint32_t echo_start = 0;
	
	if(IsSysClockOn() == 0)
    1120:	32 d1       	rcall	.+612    	; 0x1386 <_Z12IsSysClockOnv>
    1122:	81 11       	cpse	r24, r1
    1124:	07 c0       	rjmp	.+14     	; 0x1134 <_ZN10ULTRASONIC11GetDistanceEv+0x62>
	{
		/*DigitalWrite(PINS_C0, 1);
		_delay_ms(1000);
		DigitalWrite(PINS_C0, 0);
		_delay_ms(1000);*/
		SetSysClock(8);
    1126:	88 e0       	ldi	r24, 0x08	; 8
    1128:	90 e0       	ldi	r25, 0x00	; 0
    112a:	30 d1       	rcall	.+608    	; 0x138c <_Z11SetSysClockj>
		overtime_cnt ++;
		if(overtime_cnt > 9000)
			break;
	}
	
	uint32_t echo_start = 0;
    112c:	c1 2c       	mov	r12, r1
    112e:	d1 2c       	mov	r13, r1
    1130:	76 01       	movw	r14, r12
    1132:	03 c0       	rjmp	.+6      	; 0x113a <_ZN10ULTRASONIC11GetDistanceEv+0x68>
		_delay_ms(1000);
		DigitalWrite(PINS_C0, 0);
		_delay_ms(1000);*/
		SetSysClock(8);
	}
	else echo_start = GetSysClock();
    1134:	5e d1       	rcall	.+700    	; 0x13f2 <_Z11GetSysClockv>
    1136:	6b 01       	movw	r12, r22
    1138:	7c 01       	movw	r14, r24
	
	while(DigitalRead(this->pEcho) == 1); // wait while echo is high
    113a:	88 81       	ld	r24, Y
    113c:	3a de       	rcall	.-908    	; 0xdb2 <_Z11DigitalReadh>
    113e:	81 11       	cpse	r24, r1
    1140:	fc cf       	rjmp	.-8      	; 0x113a <_ZN10ULTRASONIC11GetDistanceEv+0x68>
	
	uint32_t echo_delay = GetSysClock() - echo_start;
    1142:	57 d1       	rcall	.+686    	; 0x13f2 <_Z11GetSysClockv>
    1144:	9b 01       	movw	r18, r22
    1146:	ac 01       	movw	r20, r24
    1148:	2c 19       	sub	r18, r12
    114a:	3d 09       	sbc	r19, r13
    114c:	4e 09       	sbc	r20, r14
    114e:	5f 09       	sbc	r21, r15
    1150:	69 01       	movw	r12, r18
    1152:	7a 01       	movw	r14, r20
	SetSysClock(0); // turn off timer 0
    1154:	80 e0       	ldi	r24, 0x00	; 0
    1156:	90 e0       	ldi	r25, 0x00	; 0
    1158:	19 d1       	rcall	.+562    	; 0x138c <_Z11SetSysClockj>
	
	uint16_t ans = echo_delay / 100.0 * 17.2; 
    115a:	c7 01       	movw	r24, r14
    115c:	b6 01       	movw	r22, r12
    115e:	ad d2       	rcall	.+1370   	; 0x16ba <__floatunsisf>
    1160:	20 e0       	ldi	r18, 0x00	; 0
    1162:	30 e0       	ldi	r19, 0x00	; 0
    1164:	48 ec       	ldi	r20, 0xC8	; 200
    1166:	52 e4       	ldi	r21, 0x42	; 66
    1168:	14 d2       	rcall	.+1064   	; 0x1592 <__divsf3>
    116a:	2a e9       	ldi	r18, 0x9A	; 154
    116c:	39 e9       	ldi	r19, 0x99	; 153
    116e:	49 e8       	ldi	r20, 0x89	; 137
    1170:	51 e4       	ldi	r21, 0x41	; 65
    1172:	55 d3       	rcall	.+1706   	; 0x181e <__mulsf3>
    1174:	76 d2       	rcall	.+1260   	; 0x1662 <__fixunssfsi>
	
	return ans ; 
    1176:	cb 01       	movw	r24, r22
	ans = clk_cnt * 6.0 * 17.2 / 100.0 / 16;
	
	return ans;
	
	***********************************************************************/
}
    1178:	df 91       	pop	r29
    117a:	cf 91       	pop	r28
    117c:	1f 91       	pop	r17
    117e:	0f 91       	pop	r16
    1180:	ff 90       	pop	r15
    1182:	ef 90       	pop	r14
    1184:	df 90       	pop	r13
    1186:	cf 90       	pop	r12
    1188:	08 95       	ret

0000118a <_Z8SetTimerlPFvvEj>:
*/

static bool auto_set_timer_cnt = 0;
void AutoSetTimerInterval(bool bAuto)
{
	auto_set_timer_cnt = bAuto;
    118a:	cf 92       	push	r12
    118c:	df 92       	push	r13
    118e:	ef 92       	push	r14
    1190:	ff 92       	push	r15
    1192:	cf 93       	push	r28
    1194:	df 93       	push	r29
    1196:	6b 01       	movw	r12, r22
    1198:	7c 01       	movw	r14, r24
    119a:	ea 01       	movw	r28, r20
    119c:	16 16       	cp	r1, r22
    119e:	17 06       	cpc	r1, r23
    11a0:	18 06       	cpc	r1, r24
    11a2:	19 06       	cpc	r1, r25
    11a4:	0c f0       	brlt	.+2      	; 0x11a8 <_Z8SetTimerlPFvvEj+0x1e>
    11a6:	85 c0       	rjmp	.+266    	; 0x12b2 <_Z8SetTimerlPFvvEj+0x128>
    11a8:	21 15       	cp	r18, r1
    11aa:	31 05       	cpc	r19, r1
    11ac:	29 f0       	breq	.+10     	; 0x11b8 <_Z8SetTimerlPFvvEj+0x2e>
    11ae:	30 93 8e 03 	sts	0x038E, r19	; 0x80038e <_ZL9_fracfreq+0x1>
    11b2:	20 93 8d 03 	sts	0x038D, r18	; 0x80038d <_ZL9_fracfreq>
    11b6:	39 c0       	rjmp	.+114    	; 0x122a <_Z8SetTimerlPFvvEj+0xa0>
    11b8:	61 15       	cp	r22, r1
    11ba:	71 05       	cpc	r23, r1
    11bc:	81 40       	sbci	r24, 0x01	; 1
    11be:	91 05       	cpc	r25, r1
    11c0:	1c f4       	brge	.+6      	; 0x11c8 <_Z8SetTimerlPFvvEj+0x3e>
    11c2:	81 e0       	ldi	r24, 0x01	; 1
    11c4:	90 e0       	ldi	r25, 0x00	; 0
    11c6:	2d c0       	rjmp	.+90     	; 0x1222 <_Z8SetTimerlPFvvEj+0x98>
    11c8:	89 ef       	ldi	r24, 0xF9	; 249
    11ca:	c8 16       	cp	r12, r24
    11cc:	8f ef       	ldi	r24, 0xFF	; 255
    11ce:	d8 06       	cpc	r13, r24
    11d0:	87 e0       	ldi	r24, 0x07	; 7
    11d2:	e8 06       	cpc	r14, r24
    11d4:	f1 04       	cpc	r15, r1
    11d6:	1c f4       	brge	.+6      	; 0x11de <_Z8SetTimerlPFvvEj+0x54>
    11d8:	88 e0       	ldi	r24, 0x08	; 8
    11da:	90 e0       	ldi	r25, 0x00	; 0
    11dc:	22 c0       	rjmp	.+68     	; 0x1222 <_Z8SetTimerlPFvvEj+0x98>
    11de:	21 ec       	ldi	r18, 0xC1	; 193
    11e0:	c2 16       	cp	r12, r18
    11e2:	2f ef       	ldi	r18, 0xFF	; 255
    11e4:	d2 06       	cpc	r13, r18
    11e6:	2f e3       	ldi	r18, 0x3F	; 63
    11e8:	e2 06       	cpc	r14, r18
    11ea:	f1 04       	cpc	r15, r1
    11ec:	1c f4       	brge	.+6      	; 0x11f4 <_Z8SetTimerlPFvvEj+0x6a>
    11ee:	80 e4       	ldi	r24, 0x40	; 64
    11f0:	90 e0       	ldi	r25, 0x00	; 0
    11f2:	17 c0       	rjmp	.+46     	; 0x1222 <_Z8SetTimerlPFvvEj+0x98>
    11f4:	81 e0       	ldi	r24, 0x01	; 1
    11f6:	c8 16       	cp	r12, r24
    11f8:	8f ef       	ldi	r24, 0xFF	; 255
    11fa:	d8 06       	cpc	r13, r24
    11fc:	e8 06       	cpc	r14, r24
    11fe:	f1 04       	cpc	r15, r1
    1200:	1c f4       	brge	.+6      	; 0x1208 <_Z8SetTimerlPFvvEj+0x7e>
    1202:	80 e0       	ldi	r24, 0x00	; 0
    1204:	91 e0       	ldi	r25, 0x01	; 1
    1206:	0d c0       	rjmp	.+26     	; 0x1222 <_Z8SetTimerlPFvvEj+0x98>
    1208:	21 e0       	ldi	r18, 0x01	; 1
    120a:	c2 16       	cp	r12, r18
    120c:	2c ef       	ldi	r18, 0xFC	; 252
    120e:	d2 06       	cpc	r13, r18
    1210:	2f ef       	ldi	r18, 0xFF	; 255
    1212:	e2 06       	cpc	r14, r18
    1214:	23 e0       	ldi	r18, 0x03	; 3
    1216:	f2 06       	cpc	r15, r18
    1218:	14 f0       	brlt	.+4      	; 0x121e <_Z8SetTimerlPFvvEj+0x94>
    121a:	80 e0       	ldi	r24, 0x00	; 0
    121c:	53 c0       	rjmp	.+166    	; 0x12c4 <_Z8SetTimerlPFvvEj+0x13a>
    121e:	80 e0       	ldi	r24, 0x00	; 0
    1220:	94 e0       	ldi	r25, 0x04	; 4
    1222:	90 93 8e 03 	sts	0x038E, r25	; 0x80038e <_ZL9_fracfreq+0x1>
    1226:	80 93 8d 03 	sts	0x038D, r24	; 0x80038d <_ZL9_fracfreq>
    122a:	80 91 8d 03 	lds	r24, 0x038D	; 0x80038d <_ZL9_fracfreq>
    122e:	90 91 8e 03 	lds	r25, 0x038E	; 0x80038e <_ZL9_fracfreq+0x1>
    1232:	81 30       	cpi	r24, 0x01	; 1
    1234:	91 05       	cpc	r25, r1
    1236:	11 f4       	brne	.+4      	; 0x123c <_Z8SetTimerlPFvvEj+0xb2>
    1238:	81 e0       	ldi	r24, 0x01	; 1
    123a:	14 c0       	rjmp	.+40     	; 0x1264 <_Z8SetTimerlPFvvEj+0xda>
    123c:	88 30       	cpi	r24, 0x08	; 8
    123e:	91 05       	cpc	r25, r1
    1240:	11 f4       	brne	.+4      	; 0x1246 <_Z8SetTimerlPFvvEj+0xbc>
    1242:	82 e0       	ldi	r24, 0x02	; 2
    1244:	0f c0       	rjmp	.+30     	; 0x1264 <_Z8SetTimerlPFvvEj+0xda>
    1246:	80 34       	cpi	r24, 0x40	; 64
    1248:	91 05       	cpc	r25, r1
    124a:	11 f4       	brne	.+4      	; 0x1250 <_Z8SetTimerlPFvvEj+0xc6>
    124c:	83 e0       	ldi	r24, 0x03	; 3
    124e:	0a c0       	rjmp	.+20     	; 0x1264 <_Z8SetTimerlPFvvEj+0xda>
    1250:	81 15       	cp	r24, r1
    1252:	21 e0       	ldi	r18, 0x01	; 1
    1254:	92 07       	cpc	r25, r18
    1256:	11 f4       	brne	.+4      	; 0x125c <_Z8SetTimerlPFvvEj+0xd2>
    1258:	84 e0       	ldi	r24, 0x04	; 4
    125a:	04 c0       	rjmp	.+8      	; 0x1264 <_Z8SetTimerlPFvvEj+0xda>
    125c:	81 15       	cp	r24, r1
    125e:	94 40       	sbci	r25, 0x04	; 4
    1260:	e1 f6       	brne	.-72     	; 0x121a <_Z8SetTimerlPFvvEj+0x90>
    1262:	85 e0       	ldi	r24, 0x05	; 5
    1264:	8e bd       	out	0x2e, r24	; 46
    1266:	c7 01       	movw	r24, r14
    1268:	b6 01       	movw	r22, r12
    126a:	24 e0       	ldi	r18, 0x04	; 4
    126c:	66 0f       	add	r22, r22
    126e:	77 1f       	adc	r23, r23
    1270:	88 1f       	adc	r24, r24
    1272:	99 1f       	adc	r25, r25
    1274:	2a 95       	dec	r18
    1276:	d1 f7       	brne	.-12     	; 0x126c <_Z8SetTimerlPFvvEj+0xe2>
    1278:	20 91 8d 03 	lds	r18, 0x038D	; 0x80038d <_ZL9_fracfreq>
    127c:	30 91 8e 03 	lds	r19, 0x038E	; 0x80038e <_ZL9_fracfreq+0x1>
    1280:	40 e0       	ldi	r20, 0x00	; 0
    1282:	50 e0       	ldi	r21, 0x00	; 0
    1284:	78 d3       	rcall	.+1776   	; 0x1976 <__divmodsi4>
    1286:	20 95       	com	r18
    1288:	30 95       	com	r19
    128a:	3d bd       	out	0x2d, r19	; 45
    128c:	2c bd       	out	0x2c, r18	; 44
    128e:	89 b7       	in	r24, 0x39	; 57
    1290:	84 60       	ori	r24, 0x04	; 4
    1292:	89 bf       	out	0x39, r24	; 57
    1294:	78 94       	sei
    1296:	d0 93 90 03 	sts	0x0390, r29	; 0x800390 <_ZL10_TimerFunc+0x1>
    129a:	c0 93 8f 03 	sts	0x038F, r28	; 0x80038f <_ZL10_TimerFunc>
    129e:	c0 92 89 03 	sts	0x0389, r12	; 0x800389 <_ZL18_interval_microsec>
    12a2:	d0 92 8a 03 	sts	0x038A, r13	; 0x80038a <_ZL18_interval_microsec+0x1>
    12a6:	e0 92 8b 03 	sts	0x038B, r14	; 0x80038b <_ZL18_interval_microsec+0x2>
    12aa:	f0 92 8c 03 	sts	0x038C, r15	; 0x80038c <_ZL18_interval_microsec+0x3>
    12ae:	81 e0       	ldi	r24, 0x01	; 1
    12b0:	09 c0       	rjmp	.+18     	; 0x12c4 <_Z8SetTimerlPFvvEj+0x13a>
    12b2:	c1 2c       	mov	r12, r1
    12b4:	d1 2c       	mov	r13, r1
    12b6:	76 01       	movw	r14, r12
    12b8:	c3 94       	inc	r12
    12ba:	21 15       	cp	r18, r1
    12bc:	31 05       	cpc	r19, r1
    12be:	09 f0       	breq	.+2      	; 0x12c2 <_Z8SetTimerlPFvvEj+0x138>
    12c0:	76 cf       	rjmp	.-276    	; 0x11ae <_Z8SetTimerlPFvvEj+0x24>
    12c2:	7f cf       	rjmp	.-258    	; 0x11c2 <_Z8SetTimerlPFvvEj+0x38>
    12c4:	df 91       	pop	r29
    12c6:	cf 91       	pop	r28
    12c8:	ff 90       	pop	r15
    12ca:	ef 90       	pop	r14
    12cc:	df 90       	pop	r13
    12ce:	cf 90       	pop	r12
    12d0:	08 95       	ret

000012d2 <_Z20__ResetTimerIntervallh>:
    12d2:	60 93 89 03 	sts	0x0389, r22	; 0x800389 <_ZL18_interval_microsec>
    12d6:	70 93 8a 03 	sts	0x038A, r23	; 0x80038a <_ZL18_interval_microsec+0x1>
    12da:	80 93 8b 03 	sts	0x038B, r24	; 0x80038b <_ZL18_interval_microsec+0x2>
    12de:	90 93 8c 03 	sts	0x038C, r25	; 0x80038c <_ZL18_interval_microsec+0x3>
    12e2:	50 e0       	ldi	r21, 0x00	; 0
    12e4:	50 93 8e 03 	sts	0x038E, r21	; 0x80038e <_ZL9_fracfreq+0x1>
    12e8:	40 93 8d 03 	sts	0x038D, r20	; 0x80038d <_ZL9_fracfreq>
    12ec:	08 95       	ret

000012ee <_Z9KillTimerv>:
    12ee:	f8 94       	cli
    12f0:	89 b7       	in	r24, 0x39	; 57
    12f2:	8b 7f       	andi	r24, 0xFB	; 251
    12f4:	89 bf       	out	0x39, r24	; 57
    12f6:	08 95       	ret

000012f8 <__vector_8>:
}

ISR(TIMER1_OVF_vect)
{
    12f8:	1f 92       	push	r1
    12fa:	0f 92       	push	r0
    12fc:	0f b6       	in	r0, 0x3f	; 63
    12fe:	0f 92       	push	r0
    1300:	11 24       	eor	r1, r1
    1302:	2f 93       	push	r18
    1304:	3f 93       	push	r19
    1306:	4f 93       	push	r20
    1308:	5f 93       	push	r21
    130a:	6f 93       	push	r22
    130c:	7f 93       	push	r23
    130e:	8f 93       	push	r24
    1310:	9f 93       	push	r25
    1312:	af 93       	push	r26
    1314:	bf 93       	push	r27
    1316:	ef 93       	push	r30
    1318:	ff 93       	push	r31
	if(auto_set_timer_cnt)
    131a:	80 91 88 03 	lds	r24, 0x0388	; 0x800388 <_ZL18auto_set_timer_cnt>
    131e:	88 23       	and	r24, r24
    1320:	e1 f0       	breq	.+56     	; 0x135a <__vector_8+0x62>
		TCNT1 = TIMER1_CALCNT_MICROSEC(_interval_microsec, _fracfreq);
    1322:	80 91 89 03 	lds	r24, 0x0389	; 0x800389 <_ZL18_interval_microsec>
    1326:	90 91 8a 03 	lds	r25, 0x038A	; 0x80038a <_ZL18_interval_microsec+0x1>
    132a:	a0 91 8b 03 	lds	r26, 0x038B	; 0x80038b <_ZL18_interval_microsec+0x2>
    132e:	b0 91 8c 03 	lds	r27, 0x038C	; 0x80038c <_ZL18_interval_microsec+0x3>
    1332:	bc 01       	movw	r22, r24
    1334:	cd 01       	movw	r24, r26
    1336:	24 e0       	ldi	r18, 0x04	; 4
    1338:	66 0f       	add	r22, r22
    133a:	77 1f       	adc	r23, r23
    133c:	88 1f       	adc	r24, r24
    133e:	99 1f       	adc	r25, r25
    1340:	2a 95       	dec	r18
    1342:	d1 f7       	brne	.-12     	; 0x1338 <__vector_8+0x40>
    1344:	20 91 8d 03 	lds	r18, 0x038D	; 0x80038d <_ZL9_fracfreq>
    1348:	30 91 8e 03 	lds	r19, 0x038E	; 0x80038e <_ZL9_fracfreq+0x1>
    134c:	40 e0       	ldi	r20, 0x00	; 0
    134e:	50 e0       	ldi	r21, 0x00	; 0
    1350:	12 d3       	rcall	.+1572   	; 0x1976 <__divmodsi4>
    1352:	20 95       	com	r18
    1354:	30 95       	com	r19
    1356:	3d bd       	out	0x2d, r19	; 45
    1358:	2c bd       	out	0x2c, r18	; 44
	_TimerFunc();
    135a:	e0 91 8f 03 	lds	r30, 0x038F	; 0x80038f <_ZL10_TimerFunc>
    135e:	f0 91 90 03 	lds	r31, 0x0390	; 0x800390 <_ZL10_TimerFunc+0x1>
    1362:	09 95       	icall
}
    1364:	ff 91       	pop	r31
    1366:	ef 91       	pop	r30
    1368:	bf 91       	pop	r27
    136a:	af 91       	pop	r26
    136c:	9f 91       	pop	r25
    136e:	8f 91       	pop	r24
    1370:	7f 91       	pop	r23
    1372:	6f 91       	pop	r22
    1374:	5f 91       	pop	r21
    1376:	4f 91       	pop	r20
    1378:	3f 91       	pop	r19
    137a:	2f 91       	pop	r18
    137c:	0f 90       	pop	r0
    137e:	0f be       	out	0x3f, r0	; 63
    1380:	0f 90       	pop	r0
    1382:	1f 90       	pop	r1
    1384:	18 95       	reti

00001386 <_Z12IsSysClockOnv>:
static uint16_t _fracfreq0;
static uint32_t timer0_overflow_cnt = 0;

bool IsSysClockOn()
{
	return TIMSK & (1 << TOIE0);
    1386:	89 b7       	in	r24, 0x39	; 57
}
    1388:	81 70       	andi	r24, 0x01	; 1
    138a:	08 95       	ret

0000138c <_Z11SetSysClockj>:

void SetSysClock(uint16_t ff)
{
	if (ff == 0)
    138c:	00 97       	sbiw	r24, 0x00	; 0
    138e:	29 f4       	brne	.+10     	; 0x139a <_Z11SetSysClockj+0xe>
	{
		TCCR0 = TIMER_0FF;
    1390:	13 be       	out	0x33, r1	; 51
		TIMSK &= ~(1<<TOIE0);
    1392:	89 b7       	in	r24, 0x39	; 57
    1394:	8e 7f       	andi	r24, 0xFE	; 254
    1396:	89 bf       	out	0x39, r24	; 57
		return;
    1398:	08 95       	ret
	}
	
	_fracfreq0 = ff;
    139a:	90 93 87 03 	sts	0x0387, r25	; 0x800387 <_ZL10_fracfreq0+0x1>
    139e:	80 93 86 03 	sts	0x0386, r24	; 0x800386 <_ZL10_fracfreq0>
	if (_fracfreq0 == 1)
    13a2:	81 30       	cpi	r24, 0x01	; 1
    13a4:	91 05       	cpc	r25, r1
    13a6:	11 f4       	brne	.+4      	; 0x13ac <_Z11SetSysClockj+0x20>
	{
		TCCR0 = TIMER_1FF;
    13a8:	81 e0       	ldi	r24, 0x01	; 1
    13aa:	14 c0       	rjmp	.+40     	; 0x13d4 <_Z11SetSysClockj+0x48>
	}
	else if (_fracfreq0 == 8)
    13ac:	88 30       	cpi	r24, 0x08	; 8
    13ae:	91 05       	cpc	r25, r1
    13b0:	11 f4       	brne	.+4      	; 0x13b6 <_Z11SetSysClockj+0x2a>
	{
		TCCR0 = TIMER_8FF;
    13b2:	82 e0       	ldi	r24, 0x02	; 2
    13b4:	0f c0       	rjmp	.+30     	; 0x13d4 <_Z11SetSysClockj+0x48>
	}
	else if (_fracfreq0 == 64)
    13b6:	80 34       	cpi	r24, 0x40	; 64
    13b8:	91 05       	cpc	r25, r1
    13ba:	11 f4       	brne	.+4      	; 0x13c0 <_Z11SetSysClockj+0x34>
	{
		TCCR0 = TIMER_64FF;
    13bc:	83 e0       	ldi	r24, 0x03	; 3
    13be:	0a c0       	rjmp	.+20     	; 0x13d4 <_Z11SetSysClockj+0x48>
	}
	else if (_fracfreq0 == 256)
    13c0:	81 15       	cp	r24, r1
    13c2:	21 e0       	ldi	r18, 0x01	; 1
    13c4:	92 07       	cpc	r25, r18
    13c6:	11 f4       	brne	.+4      	; 0x13cc <_Z11SetSysClockj+0x40>
	{
		TCCR0 = TIMER_256FF;
    13c8:	84 e0       	ldi	r24, 0x04	; 4
    13ca:	04 c0       	rjmp	.+8      	; 0x13d4 <_Z11SetSysClockj+0x48>
	}
	else if (_fracfreq0 == 1024)
    13cc:	81 15       	cp	r24, r1
    13ce:	94 40       	sbci	r25, 0x04	; 4
    13d0:	79 f4       	brne	.+30     	; 0x13f0 <_Z11SetSysClockj+0x64>
	{
		TCCR0 = TIMER_1024FF;
    13d2:	85 e0       	ldi	r24, 0x05	; 5
    13d4:	83 bf       	out	0x33, r24	; 51
	}
	else return;
	
	timer0_overflow_cnt = 0;
    13d6:	10 92 82 03 	sts	0x0382, r1	; 0x800382 <_ZL19timer0_overflow_cnt>
    13da:	10 92 83 03 	sts	0x0383, r1	; 0x800383 <_ZL19timer0_overflow_cnt+0x1>
    13de:	10 92 84 03 	sts	0x0384, r1	; 0x800384 <_ZL19timer0_overflow_cnt+0x2>
    13e2:	10 92 85 03 	sts	0x0385, r1	; 0x800385 <_ZL19timer0_overflow_cnt+0x3>
	TCNT0 = 0;
    13e6:	12 be       	out	0x32, r1	; 50
	TIMSK |= (1<<TOIE0);
    13e8:	89 b7       	in	r24, 0x39	; 57
    13ea:	81 60       	ori	r24, 0x01	; 1
    13ec:	89 bf       	out	0x39, r24	; 57
	sei();
    13ee:	78 94       	sei
    13f0:	08 95       	ret

000013f2 <_Z11GetSysClockv>:
}

uint32_t GetSysClock()
{
	return (timer0_overflow_cnt * TIMER0_OVERFLOW_MAX + TCNT0) * _fracfreq0 / MHZ_PER_US;
    13f2:	82 b7       	in	r24, 0x32	; 50
    13f4:	40 91 82 03 	lds	r20, 0x0382	; 0x800382 <_ZL19timer0_overflow_cnt>
    13f8:	50 91 83 03 	lds	r21, 0x0383	; 0x800383 <_ZL19timer0_overflow_cnt+0x1>
    13fc:	60 91 84 03 	lds	r22, 0x0384	; 0x800384 <_ZL19timer0_overflow_cnt+0x2>
    1400:	70 91 85 03 	lds	r23, 0x0385	; 0x800385 <_ZL19timer0_overflow_cnt+0x3>
    1404:	76 2f       	mov	r23, r22
    1406:	65 2f       	mov	r22, r21
    1408:	54 2f       	mov	r21, r20
    140a:	44 27       	eor	r20, r20
    140c:	9a 01       	movw	r18, r20
    140e:	ab 01       	movw	r20, r22
    1410:	28 0f       	add	r18, r24
    1412:	31 1d       	adc	r19, r1
    1414:	41 1d       	adc	r20, r1
    1416:	51 1d       	adc	r21, r1
    1418:	a0 91 86 03 	lds	r26, 0x0386	; 0x800386 <_ZL10_fracfreq0>
    141c:	b0 91 87 03 	lds	r27, 0x0387	; 0x800387 <_ZL10_fracfreq0+0x1>
    1420:	d2 d2       	rcall	.+1444   	; 0x19c6 <__muluhisi3>
    1422:	24 e0       	ldi	r18, 0x04	; 4
    1424:	96 95       	lsr	r25
    1426:	87 95       	ror	r24
    1428:	77 95       	ror	r23
    142a:	67 95       	ror	r22
    142c:	2a 95       	dec	r18
    142e:	d1 f7       	brne	.-12     	; 0x1424 <_Z11GetSysClockv+0x32>
}
    1430:	08 95       	ret

00001432 <__vector_9>:

ISR(TIMER0_OVF_vect)
{
    1432:	1f 92       	push	r1
    1434:	0f 92       	push	r0
    1436:	0f b6       	in	r0, 0x3f	; 63
    1438:	0f 92       	push	r0
    143a:	11 24       	eor	r1, r1
    143c:	8f 93       	push	r24
    143e:	9f 93       	push	r25
    1440:	af 93       	push	r26
    1442:	bf 93       	push	r27
	timer0_overflow_cnt ++;
    1444:	80 91 82 03 	lds	r24, 0x0382	; 0x800382 <_ZL19timer0_overflow_cnt>
    1448:	90 91 83 03 	lds	r25, 0x0383	; 0x800383 <_ZL19timer0_overflow_cnt+0x1>
    144c:	a0 91 84 03 	lds	r26, 0x0384	; 0x800384 <_ZL19timer0_overflow_cnt+0x2>
    1450:	b0 91 85 03 	lds	r27, 0x0385	; 0x800385 <_ZL19timer0_overflow_cnt+0x3>
    1454:	01 96       	adiw	r24, 0x01	; 1
    1456:	a1 1d       	adc	r26, r1
    1458:	b1 1d       	adc	r27, r1
    145a:	80 93 82 03 	sts	0x0382, r24	; 0x800382 <_ZL19timer0_overflow_cnt>
    145e:	90 93 83 03 	sts	0x0383, r25	; 0x800383 <_ZL19timer0_overflow_cnt+0x1>
    1462:	a0 93 84 03 	sts	0x0384, r26	; 0x800384 <_ZL19timer0_overflow_cnt+0x2>
    1466:	b0 93 85 03 	sts	0x0385, r27	; 0x800385 <_ZL19timer0_overflow_cnt+0x3>
}
    146a:	bf 91       	pop	r27
    146c:	af 91       	pop	r26
    146e:	9f 91       	pop	r25
    1470:	8f 91       	pop	r24
    1472:	0f 90       	pop	r0
    1474:	0f be       	out	0x3f, r0	; 63
    1476:	0f 90       	pop	r0
    1478:	1f 90       	pop	r1
    147a:	18 95       	reti

0000147c <_Z8TWI_Initv>:
 */ 
#include "twi_fun.h"

void TWI_Init(void)// TWI 接口的初始化
{//设置SCL的频率：1MHz CPU-50KHz SCL,2M-100K,8M-400K
	TWSR = 0x00; //最低2位为预分频设置(00-1,01-4,10-16,11-64)
    147c:	11 b8       	out	0x01, r1	; 1
	TWBR = 0x02; //位率设置，fscl=cpu频率/(16+2*TWBR*预分频值)
    147e:	82 e0       	ldi	r24, 0x02	; 2
    1480:	80 b9       	out	0x00, r24	; 0
	TWCR = (1<<TWEN); //开启TWI
    1482:	84 e0       	ldi	r24, 0x04	; 4
    1484:	86 bf       	out	0x36, r24	; 54
    1486:	08 95       	ret

00001488 <_Z9TWI_Startv>:
}

char TWI_Start(void)//发送Start信号，开始本次TWI通信
{
	TWCR = (1<<TWINT)|(1<<TWSTA)|(1<<TWEN);//发送Start信号
    1488:	84 ea       	ldi	r24, 0xA4	; 164
    148a:	86 bf       	out	0x36, r24	; 54
	while(!(TWCR &(1<<TWINT)));//等待Start信号发出
    148c:	06 b6       	in	r0, 0x36	; 54
    148e:	07 fe       	sbrs	r0, 7
    1490:	fd cf       	rjmp	.-6      	; 0x148c <_Z9TWI_Startv+0x4>
	
	return (TWSR & 0xf8) == TW_START;
    1492:	91 b1       	in	r25, 0x01	; 1
    1494:	98 7f       	andi	r25, 0xF8	; 248
    1496:	81 e0       	ldi	r24, 0x01	; 1
    1498:	98 30       	cpi	r25, 0x08	; 8
    149a:	09 f0       	breq	.+2      	; 0x149e <_Z9TWI_Startv+0x16>
    149c:	80 e0       	ldi	r24, 0x00	; 0
}
    149e:	08 95       	ret

000014a0 <_Z8TWI_Stopv>:

void TWI_Stop(void)//发送Stop信号，结束本次TWI通信
{
	TWCR = (1<<TWINT)|(1<<TWSTO)|(1<<TWEN);//发送Stop信号
    14a0:	84 e9       	ldi	r24, 0x94	; 148
    14a2:	86 bf       	out	0x36, r24	; 54
    14a4:	08 95       	ret

000014a6 <_Z9TWI_Writeh>:
}

char TWI_Write(unsigned char uc_data) //向TWI接口发送8位数据
{
	TWDR = uc_data;//8位数据存放在TWDR
    14a6:	83 b9       	out	0x03, r24	; 3
	TWCR = (1<<TWINT)|(1<<TWEN);//发送TWDR中的数据
    14a8:	84 e8       	ldi	r24, 0x84	; 132
    14aa:	86 bf       	out	0x36, r24	; 54
	while(!(TWCR &(1<<TWINT)));//等待数据发出
    14ac:	06 b6       	in	r0, 0x36	; 54
    14ae:	07 fe       	sbrs	r0, 7
    14b0:	fd cf       	rjmp	.-6      	; 0x14ac <_Z9TWI_Writeh+0x6>
	
	return (TWSR & 0xf8)==TW_MT_SLA_ACK;
    14b2:	91 b1       	in	r25, 0x01	; 1
    14b4:	98 7f       	andi	r25, 0xF8	; 248
    14b6:	81 e0       	ldi	r24, 0x01	; 1
    14b8:	98 31       	cpi	r25, 0x18	; 24
    14ba:	09 f0       	breq	.+2      	; 0x14be <_Z9TWI_Writeh+0x18>
    14bc:	80 e0       	ldi	r24, 0x00	; 0
}
    14be:	08 95       	ret

000014c0 <__subsf3>:
    14c0:	50 58       	subi	r21, 0x80	; 128

000014c2 <__addsf3>:
    14c2:	bb 27       	eor	r27, r27
    14c4:	aa 27       	eor	r26, r26
    14c6:	0e d0       	rcall	.+28     	; 0x14e4 <__addsf3x>
    14c8:	70 c1       	rjmp	.+736    	; 0x17aa <__fp_round>
    14ca:	61 d1       	rcall	.+706    	; 0x178e <__fp_pscA>
    14cc:	30 f0       	brcs	.+12     	; 0x14da <__addsf3+0x18>
    14ce:	66 d1       	rcall	.+716    	; 0x179c <__fp_pscB>
    14d0:	20 f0       	brcs	.+8      	; 0x14da <__addsf3+0x18>
    14d2:	31 f4       	brne	.+12     	; 0x14e0 <__addsf3+0x1e>
    14d4:	9f 3f       	cpi	r25, 0xFF	; 255
    14d6:	11 f4       	brne	.+4      	; 0x14dc <__addsf3+0x1a>
    14d8:	1e f4       	brtc	.+6      	; 0x14e0 <__addsf3+0x1e>
    14da:	56 c1       	rjmp	.+684    	; 0x1788 <__fp_nan>
    14dc:	0e f4       	brtc	.+2      	; 0x14e0 <__addsf3+0x1e>
    14de:	e0 95       	com	r30
    14e0:	e7 fb       	bst	r30, 7
    14e2:	4c c1       	rjmp	.+664    	; 0x177c <__fp_inf>

000014e4 <__addsf3x>:
    14e4:	e9 2f       	mov	r30, r25
    14e6:	72 d1       	rcall	.+740    	; 0x17cc <__fp_split3>
    14e8:	80 f3       	brcs	.-32     	; 0x14ca <__addsf3+0x8>
    14ea:	ba 17       	cp	r27, r26
    14ec:	62 07       	cpc	r22, r18
    14ee:	73 07       	cpc	r23, r19
    14f0:	84 07       	cpc	r24, r20
    14f2:	95 07       	cpc	r25, r21
    14f4:	18 f0       	brcs	.+6      	; 0x14fc <__addsf3x+0x18>
    14f6:	71 f4       	brne	.+28     	; 0x1514 <__addsf3x+0x30>
    14f8:	9e f5       	brtc	.+102    	; 0x1560 <__addsf3x+0x7c>
    14fa:	8a c1       	rjmp	.+788    	; 0x1810 <__fp_zero>
    14fc:	0e f4       	brtc	.+2      	; 0x1500 <__addsf3x+0x1c>
    14fe:	e0 95       	com	r30
    1500:	0b 2e       	mov	r0, r27
    1502:	ba 2f       	mov	r27, r26
    1504:	a0 2d       	mov	r26, r0
    1506:	0b 01       	movw	r0, r22
    1508:	b9 01       	movw	r22, r18
    150a:	90 01       	movw	r18, r0
    150c:	0c 01       	movw	r0, r24
    150e:	ca 01       	movw	r24, r20
    1510:	a0 01       	movw	r20, r0
    1512:	11 24       	eor	r1, r1
    1514:	ff 27       	eor	r31, r31
    1516:	59 1b       	sub	r21, r25
    1518:	99 f0       	breq	.+38     	; 0x1540 <__addsf3x+0x5c>
    151a:	59 3f       	cpi	r21, 0xF9	; 249
    151c:	50 f4       	brcc	.+20     	; 0x1532 <__addsf3x+0x4e>
    151e:	50 3e       	cpi	r21, 0xE0	; 224
    1520:	68 f1       	brcs	.+90     	; 0x157c <__addsf3x+0x98>
    1522:	1a 16       	cp	r1, r26
    1524:	f0 40       	sbci	r31, 0x00	; 0
    1526:	a2 2f       	mov	r26, r18
    1528:	23 2f       	mov	r18, r19
    152a:	34 2f       	mov	r19, r20
    152c:	44 27       	eor	r20, r20
    152e:	58 5f       	subi	r21, 0xF8	; 248
    1530:	f3 cf       	rjmp	.-26     	; 0x1518 <__addsf3x+0x34>
    1532:	46 95       	lsr	r20
    1534:	37 95       	ror	r19
    1536:	27 95       	ror	r18
    1538:	a7 95       	ror	r26
    153a:	f0 40       	sbci	r31, 0x00	; 0
    153c:	53 95       	inc	r21
    153e:	c9 f7       	brne	.-14     	; 0x1532 <__addsf3x+0x4e>
    1540:	7e f4       	brtc	.+30     	; 0x1560 <__addsf3x+0x7c>
    1542:	1f 16       	cp	r1, r31
    1544:	ba 0b       	sbc	r27, r26
    1546:	62 0b       	sbc	r22, r18
    1548:	73 0b       	sbc	r23, r19
    154a:	84 0b       	sbc	r24, r20
    154c:	ba f0       	brmi	.+46     	; 0x157c <__addsf3x+0x98>
    154e:	91 50       	subi	r25, 0x01	; 1
    1550:	a1 f0       	breq	.+40     	; 0x157a <__addsf3x+0x96>
    1552:	ff 0f       	add	r31, r31
    1554:	bb 1f       	adc	r27, r27
    1556:	66 1f       	adc	r22, r22
    1558:	77 1f       	adc	r23, r23
    155a:	88 1f       	adc	r24, r24
    155c:	c2 f7       	brpl	.-16     	; 0x154e <__addsf3x+0x6a>
    155e:	0e c0       	rjmp	.+28     	; 0x157c <__addsf3x+0x98>
    1560:	ba 0f       	add	r27, r26
    1562:	62 1f       	adc	r22, r18
    1564:	73 1f       	adc	r23, r19
    1566:	84 1f       	adc	r24, r20
    1568:	48 f4       	brcc	.+18     	; 0x157c <__addsf3x+0x98>
    156a:	87 95       	ror	r24
    156c:	77 95       	ror	r23
    156e:	67 95       	ror	r22
    1570:	b7 95       	ror	r27
    1572:	f7 95       	ror	r31
    1574:	9e 3f       	cpi	r25, 0xFE	; 254
    1576:	08 f0       	brcs	.+2      	; 0x157a <__addsf3x+0x96>
    1578:	b3 cf       	rjmp	.-154    	; 0x14e0 <__addsf3+0x1e>
    157a:	93 95       	inc	r25
    157c:	88 0f       	add	r24, r24
    157e:	08 f0       	brcs	.+2      	; 0x1582 <__addsf3x+0x9e>
    1580:	99 27       	eor	r25, r25
    1582:	ee 0f       	add	r30, r30
    1584:	97 95       	ror	r25
    1586:	87 95       	ror	r24
    1588:	08 95       	ret

0000158a <__cmpsf2>:
    158a:	d4 d0       	rcall	.+424    	; 0x1734 <__fp_cmp>
    158c:	08 f4       	brcc	.+2      	; 0x1590 <__cmpsf2+0x6>
    158e:	81 e0       	ldi	r24, 0x01	; 1
    1590:	08 95       	ret

00001592 <__divsf3>:
    1592:	0c d0       	rcall	.+24     	; 0x15ac <__divsf3x>
    1594:	0a c1       	rjmp	.+532    	; 0x17aa <__fp_round>
    1596:	02 d1       	rcall	.+516    	; 0x179c <__fp_pscB>
    1598:	40 f0       	brcs	.+16     	; 0x15aa <__divsf3+0x18>
    159a:	f9 d0       	rcall	.+498    	; 0x178e <__fp_pscA>
    159c:	30 f0       	brcs	.+12     	; 0x15aa <__divsf3+0x18>
    159e:	21 f4       	brne	.+8      	; 0x15a8 <__divsf3+0x16>
    15a0:	5f 3f       	cpi	r21, 0xFF	; 255
    15a2:	19 f0       	breq	.+6      	; 0x15aa <__divsf3+0x18>
    15a4:	eb c0       	rjmp	.+470    	; 0x177c <__fp_inf>
    15a6:	51 11       	cpse	r21, r1
    15a8:	34 c1       	rjmp	.+616    	; 0x1812 <__fp_szero>
    15aa:	ee c0       	rjmp	.+476    	; 0x1788 <__fp_nan>

000015ac <__divsf3x>:
    15ac:	0f d1       	rcall	.+542    	; 0x17cc <__fp_split3>
    15ae:	98 f3       	brcs	.-26     	; 0x1596 <__divsf3+0x4>

000015b0 <__divsf3_pse>:
    15b0:	99 23       	and	r25, r25
    15b2:	c9 f3       	breq	.-14     	; 0x15a6 <__divsf3+0x14>
    15b4:	55 23       	and	r21, r21
    15b6:	b1 f3       	breq	.-20     	; 0x15a4 <__divsf3+0x12>
    15b8:	95 1b       	sub	r25, r21
    15ba:	55 0b       	sbc	r21, r21
    15bc:	bb 27       	eor	r27, r27
    15be:	aa 27       	eor	r26, r26
    15c0:	62 17       	cp	r22, r18
    15c2:	73 07       	cpc	r23, r19
    15c4:	84 07       	cpc	r24, r20
    15c6:	38 f0       	brcs	.+14     	; 0x15d6 <__divsf3_pse+0x26>
    15c8:	9f 5f       	subi	r25, 0xFF	; 255
    15ca:	5f 4f       	sbci	r21, 0xFF	; 255
    15cc:	22 0f       	add	r18, r18
    15ce:	33 1f       	adc	r19, r19
    15d0:	44 1f       	adc	r20, r20
    15d2:	aa 1f       	adc	r26, r26
    15d4:	a9 f3       	breq	.-22     	; 0x15c0 <__divsf3_pse+0x10>
    15d6:	33 d0       	rcall	.+102    	; 0x163e <__divsf3_pse+0x8e>
    15d8:	0e 2e       	mov	r0, r30
    15da:	3a f0       	brmi	.+14     	; 0x15ea <__divsf3_pse+0x3a>
    15dc:	e0 e8       	ldi	r30, 0x80	; 128
    15de:	30 d0       	rcall	.+96     	; 0x1640 <__divsf3_pse+0x90>
    15e0:	91 50       	subi	r25, 0x01	; 1
    15e2:	50 40       	sbci	r21, 0x00	; 0
    15e4:	e6 95       	lsr	r30
    15e6:	00 1c       	adc	r0, r0
    15e8:	ca f7       	brpl	.-14     	; 0x15dc <__divsf3_pse+0x2c>
    15ea:	29 d0       	rcall	.+82     	; 0x163e <__divsf3_pse+0x8e>
    15ec:	fe 2f       	mov	r31, r30
    15ee:	27 d0       	rcall	.+78     	; 0x163e <__divsf3_pse+0x8e>
    15f0:	66 0f       	add	r22, r22
    15f2:	77 1f       	adc	r23, r23
    15f4:	88 1f       	adc	r24, r24
    15f6:	bb 1f       	adc	r27, r27
    15f8:	26 17       	cp	r18, r22
    15fa:	37 07       	cpc	r19, r23
    15fc:	48 07       	cpc	r20, r24
    15fe:	ab 07       	cpc	r26, r27
    1600:	b0 e8       	ldi	r27, 0x80	; 128
    1602:	09 f0       	breq	.+2      	; 0x1606 <__divsf3_pse+0x56>
    1604:	bb 0b       	sbc	r27, r27
    1606:	80 2d       	mov	r24, r0
    1608:	bf 01       	movw	r22, r30
    160a:	ff 27       	eor	r31, r31
    160c:	93 58       	subi	r25, 0x83	; 131
    160e:	5f 4f       	sbci	r21, 0xFF	; 255
    1610:	2a f0       	brmi	.+10     	; 0x161c <__divsf3_pse+0x6c>
    1612:	9e 3f       	cpi	r25, 0xFE	; 254
    1614:	51 05       	cpc	r21, r1
    1616:	68 f0       	brcs	.+26     	; 0x1632 <__divsf3_pse+0x82>
    1618:	b1 c0       	rjmp	.+354    	; 0x177c <__fp_inf>
    161a:	fb c0       	rjmp	.+502    	; 0x1812 <__fp_szero>
    161c:	5f 3f       	cpi	r21, 0xFF	; 255
    161e:	ec f3       	brlt	.-6      	; 0x161a <__divsf3_pse+0x6a>
    1620:	98 3e       	cpi	r25, 0xE8	; 232
    1622:	dc f3       	brlt	.-10     	; 0x161a <__divsf3_pse+0x6a>
    1624:	86 95       	lsr	r24
    1626:	77 95       	ror	r23
    1628:	67 95       	ror	r22
    162a:	b7 95       	ror	r27
    162c:	f7 95       	ror	r31
    162e:	9f 5f       	subi	r25, 0xFF	; 255
    1630:	c9 f7       	brne	.-14     	; 0x1624 <__divsf3_pse+0x74>
    1632:	88 0f       	add	r24, r24
    1634:	91 1d       	adc	r25, r1
    1636:	96 95       	lsr	r25
    1638:	87 95       	ror	r24
    163a:	97 f9       	bld	r25, 7
    163c:	08 95       	ret
    163e:	e1 e0       	ldi	r30, 0x01	; 1
    1640:	66 0f       	add	r22, r22
    1642:	77 1f       	adc	r23, r23
    1644:	88 1f       	adc	r24, r24
    1646:	bb 1f       	adc	r27, r27
    1648:	62 17       	cp	r22, r18
    164a:	73 07       	cpc	r23, r19
    164c:	84 07       	cpc	r24, r20
    164e:	ba 07       	cpc	r27, r26
    1650:	20 f0       	brcs	.+8      	; 0x165a <__divsf3_pse+0xaa>
    1652:	62 1b       	sub	r22, r18
    1654:	73 0b       	sbc	r23, r19
    1656:	84 0b       	sbc	r24, r20
    1658:	ba 0b       	sbc	r27, r26
    165a:	ee 1f       	adc	r30, r30
    165c:	88 f7       	brcc	.-30     	; 0x1640 <__divsf3_pse+0x90>
    165e:	e0 95       	com	r30
    1660:	08 95       	ret

00001662 <__fixunssfsi>:
    1662:	bc d0       	rcall	.+376    	; 0x17dc <__fp_splitA>
    1664:	88 f0       	brcs	.+34     	; 0x1688 <__fixunssfsi+0x26>
    1666:	9f 57       	subi	r25, 0x7F	; 127
    1668:	90 f0       	brcs	.+36     	; 0x168e <__fixunssfsi+0x2c>
    166a:	b9 2f       	mov	r27, r25
    166c:	99 27       	eor	r25, r25
    166e:	b7 51       	subi	r27, 0x17	; 23
    1670:	a0 f0       	brcs	.+40     	; 0x169a <__fixunssfsi+0x38>
    1672:	d1 f0       	breq	.+52     	; 0x16a8 <__fixunssfsi+0x46>
    1674:	66 0f       	add	r22, r22
    1676:	77 1f       	adc	r23, r23
    1678:	88 1f       	adc	r24, r24
    167a:	99 1f       	adc	r25, r25
    167c:	1a f0       	brmi	.+6      	; 0x1684 <__fixunssfsi+0x22>
    167e:	ba 95       	dec	r27
    1680:	c9 f7       	brne	.-14     	; 0x1674 <__fixunssfsi+0x12>
    1682:	12 c0       	rjmp	.+36     	; 0x16a8 <__fixunssfsi+0x46>
    1684:	b1 30       	cpi	r27, 0x01	; 1
    1686:	81 f0       	breq	.+32     	; 0x16a8 <__fixunssfsi+0x46>
    1688:	c3 d0       	rcall	.+390    	; 0x1810 <__fp_zero>
    168a:	b1 e0       	ldi	r27, 0x01	; 1
    168c:	08 95       	ret
    168e:	c0 c0       	rjmp	.+384    	; 0x1810 <__fp_zero>
    1690:	67 2f       	mov	r22, r23
    1692:	78 2f       	mov	r23, r24
    1694:	88 27       	eor	r24, r24
    1696:	b8 5f       	subi	r27, 0xF8	; 248
    1698:	39 f0       	breq	.+14     	; 0x16a8 <__fixunssfsi+0x46>
    169a:	b9 3f       	cpi	r27, 0xF9	; 249
    169c:	cc f3       	brlt	.-14     	; 0x1690 <__fixunssfsi+0x2e>
    169e:	86 95       	lsr	r24
    16a0:	77 95       	ror	r23
    16a2:	67 95       	ror	r22
    16a4:	b3 95       	inc	r27
    16a6:	d9 f7       	brne	.-10     	; 0x169e <__fixunssfsi+0x3c>
    16a8:	3e f4       	brtc	.+14     	; 0x16b8 <__fixunssfsi+0x56>
    16aa:	90 95       	com	r25
    16ac:	80 95       	com	r24
    16ae:	70 95       	com	r23
    16b0:	61 95       	neg	r22
    16b2:	7f 4f       	sbci	r23, 0xFF	; 255
    16b4:	8f 4f       	sbci	r24, 0xFF	; 255
    16b6:	9f 4f       	sbci	r25, 0xFF	; 255
    16b8:	08 95       	ret

000016ba <__floatunsisf>:
    16ba:	e8 94       	clt
    16bc:	09 c0       	rjmp	.+18     	; 0x16d0 <__floatsisf+0x12>

000016be <__floatsisf>:
    16be:	97 fb       	bst	r25, 7
    16c0:	3e f4       	brtc	.+14     	; 0x16d0 <__floatsisf+0x12>
    16c2:	90 95       	com	r25
    16c4:	80 95       	com	r24
    16c6:	70 95       	com	r23
    16c8:	61 95       	neg	r22
    16ca:	7f 4f       	sbci	r23, 0xFF	; 255
    16cc:	8f 4f       	sbci	r24, 0xFF	; 255
    16ce:	9f 4f       	sbci	r25, 0xFF	; 255
    16d0:	99 23       	and	r25, r25
    16d2:	a9 f0       	breq	.+42     	; 0x16fe <__floatsisf+0x40>
    16d4:	f9 2f       	mov	r31, r25
    16d6:	96 e9       	ldi	r25, 0x96	; 150
    16d8:	bb 27       	eor	r27, r27
    16da:	93 95       	inc	r25
    16dc:	f6 95       	lsr	r31
    16de:	87 95       	ror	r24
    16e0:	77 95       	ror	r23
    16e2:	67 95       	ror	r22
    16e4:	b7 95       	ror	r27
    16e6:	f1 11       	cpse	r31, r1
    16e8:	f8 cf       	rjmp	.-16     	; 0x16da <__floatsisf+0x1c>
    16ea:	fa f4       	brpl	.+62     	; 0x172a <__floatsisf+0x6c>
    16ec:	bb 0f       	add	r27, r27
    16ee:	11 f4       	brne	.+4      	; 0x16f4 <__floatsisf+0x36>
    16f0:	60 ff       	sbrs	r22, 0
    16f2:	1b c0       	rjmp	.+54     	; 0x172a <__floatsisf+0x6c>
    16f4:	6f 5f       	subi	r22, 0xFF	; 255
    16f6:	7f 4f       	sbci	r23, 0xFF	; 255
    16f8:	8f 4f       	sbci	r24, 0xFF	; 255
    16fa:	9f 4f       	sbci	r25, 0xFF	; 255
    16fc:	16 c0       	rjmp	.+44     	; 0x172a <__floatsisf+0x6c>
    16fe:	88 23       	and	r24, r24
    1700:	11 f0       	breq	.+4      	; 0x1706 <__floatsisf+0x48>
    1702:	96 e9       	ldi	r25, 0x96	; 150
    1704:	11 c0       	rjmp	.+34     	; 0x1728 <__floatsisf+0x6a>
    1706:	77 23       	and	r23, r23
    1708:	21 f0       	breq	.+8      	; 0x1712 <__floatsisf+0x54>
    170a:	9e e8       	ldi	r25, 0x8E	; 142
    170c:	87 2f       	mov	r24, r23
    170e:	76 2f       	mov	r23, r22
    1710:	05 c0       	rjmp	.+10     	; 0x171c <__floatsisf+0x5e>
    1712:	66 23       	and	r22, r22
    1714:	71 f0       	breq	.+28     	; 0x1732 <__floatsisf+0x74>
    1716:	96 e8       	ldi	r25, 0x86	; 134
    1718:	86 2f       	mov	r24, r22
    171a:	70 e0       	ldi	r23, 0x00	; 0
    171c:	60 e0       	ldi	r22, 0x00	; 0
    171e:	2a f0       	brmi	.+10     	; 0x172a <__floatsisf+0x6c>
    1720:	9a 95       	dec	r25
    1722:	66 0f       	add	r22, r22
    1724:	77 1f       	adc	r23, r23
    1726:	88 1f       	adc	r24, r24
    1728:	da f7       	brpl	.-10     	; 0x1720 <__floatsisf+0x62>
    172a:	88 0f       	add	r24, r24
    172c:	96 95       	lsr	r25
    172e:	87 95       	ror	r24
    1730:	97 f9       	bld	r25, 7
    1732:	08 95       	ret

00001734 <__fp_cmp>:
    1734:	99 0f       	add	r25, r25
    1736:	00 08       	sbc	r0, r0
    1738:	55 0f       	add	r21, r21
    173a:	aa 0b       	sbc	r26, r26
    173c:	e0 e8       	ldi	r30, 0x80	; 128
    173e:	fe ef       	ldi	r31, 0xFE	; 254
    1740:	16 16       	cp	r1, r22
    1742:	17 06       	cpc	r1, r23
    1744:	e8 07       	cpc	r30, r24
    1746:	f9 07       	cpc	r31, r25
    1748:	c0 f0       	brcs	.+48     	; 0x177a <__fp_cmp+0x46>
    174a:	12 16       	cp	r1, r18
    174c:	13 06       	cpc	r1, r19
    174e:	e4 07       	cpc	r30, r20
    1750:	f5 07       	cpc	r31, r21
    1752:	98 f0       	brcs	.+38     	; 0x177a <__fp_cmp+0x46>
    1754:	62 1b       	sub	r22, r18
    1756:	73 0b       	sbc	r23, r19
    1758:	84 0b       	sbc	r24, r20
    175a:	95 0b       	sbc	r25, r21
    175c:	39 f4       	brne	.+14     	; 0x176c <__fp_cmp+0x38>
    175e:	0a 26       	eor	r0, r26
    1760:	61 f0       	breq	.+24     	; 0x177a <__fp_cmp+0x46>
    1762:	23 2b       	or	r18, r19
    1764:	24 2b       	or	r18, r20
    1766:	25 2b       	or	r18, r21
    1768:	21 f4       	brne	.+8      	; 0x1772 <__fp_cmp+0x3e>
    176a:	08 95       	ret
    176c:	0a 26       	eor	r0, r26
    176e:	09 f4       	brne	.+2      	; 0x1772 <__fp_cmp+0x3e>
    1770:	a1 40       	sbci	r26, 0x01	; 1
    1772:	a6 95       	lsr	r26
    1774:	8f ef       	ldi	r24, 0xFF	; 255
    1776:	81 1d       	adc	r24, r1
    1778:	81 1d       	adc	r24, r1
    177a:	08 95       	ret

0000177c <__fp_inf>:
    177c:	97 f9       	bld	r25, 7
    177e:	9f 67       	ori	r25, 0x7F	; 127
    1780:	80 e8       	ldi	r24, 0x80	; 128
    1782:	70 e0       	ldi	r23, 0x00	; 0
    1784:	60 e0       	ldi	r22, 0x00	; 0
    1786:	08 95       	ret

00001788 <__fp_nan>:
    1788:	9f ef       	ldi	r25, 0xFF	; 255
    178a:	80 ec       	ldi	r24, 0xC0	; 192
    178c:	08 95       	ret

0000178e <__fp_pscA>:
    178e:	00 24       	eor	r0, r0
    1790:	0a 94       	dec	r0
    1792:	16 16       	cp	r1, r22
    1794:	17 06       	cpc	r1, r23
    1796:	18 06       	cpc	r1, r24
    1798:	09 06       	cpc	r0, r25
    179a:	08 95       	ret

0000179c <__fp_pscB>:
    179c:	00 24       	eor	r0, r0
    179e:	0a 94       	dec	r0
    17a0:	12 16       	cp	r1, r18
    17a2:	13 06       	cpc	r1, r19
    17a4:	14 06       	cpc	r1, r20
    17a6:	05 06       	cpc	r0, r21
    17a8:	08 95       	ret

000017aa <__fp_round>:
    17aa:	09 2e       	mov	r0, r25
    17ac:	03 94       	inc	r0
    17ae:	00 0c       	add	r0, r0
    17b0:	11 f4       	brne	.+4      	; 0x17b6 <__fp_round+0xc>
    17b2:	88 23       	and	r24, r24
    17b4:	52 f0       	brmi	.+20     	; 0x17ca <__fp_round+0x20>
    17b6:	bb 0f       	add	r27, r27
    17b8:	40 f4       	brcc	.+16     	; 0x17ca <__fp_round+0x20>
    17ba:	bf 2b       	or	r27, r31
    17bc:	11 f4       	brne	.+4      	; 0x17c2 <__fp_round+0x18>
    17be:	60 ff       	sbrs	r22, 0
    17c0:	04 c0       	rjmp	.+8      	; 0x17ca <__fp_round+0x20>
    17c2:	6f 5f       	subi	r22, 0xFF	; 255
    17c4:	7f 4f       	sbci	r23, 0xFF	; 255
    17c6:	8f 4f       	sbci	r24, 0xFF	; 255
    17c8:	9f 4f       	sbci	r25, 0xFF	; 255
    17ca:	08 95       	ret

000017cc <__fp_split3>:
    17cc:	57 fd       	sbrc	r21, 7
    17ce:	90 58       	subi	r25, 0x80	; 128
    17d0:	44 0f       	add	r20, r20
    17d2:	55 1f       	adc	r21, r21
    17d4:	59 f0       	breq	.+22     	; 0x17ec <__fp_splitA+0x10>
    17d6:	5f 3f       	cpi	r21, 0xFF	; 255
    17d8:	71 f0       	breq	.+28     	; 0x17f6 <__fp_splitA+0x1a>
    17da:	47 95       	ror	r20

000017dc <__fp_splitA>:
    17dc:	88 0f       	add	r24, r24
    17de:	97 fb       	bst	r25, 7
    17e0:	99 1f       	adc	r25, r25
    17e2:	61 f0       	breq	.+24     	; 0x17fc <__fp_splitA+0x20>
    17e4:	9f 3f       	cpi	r25, 0xFF	; 255
    17e6:	79 f0       	breq	.+30     	; 0x1806 <__fp_splitA+0x2a>
    17e8:	87 95       	ror	r24
    17ea:	08 95       	ret
    17ec:	12 16       	cp	r1, r18
    17ee:	13 06       	cpc	r1, r19
    17f0:	14 06       	cpc	r1, r20
    17f2:	55 1f       	adc	r21, r21
    17f4:	f2 cf       	rjmp	.-28     	; 0x17da <__fp_split3+0xe>
    17f6:	46 95       	lsr	r20
    17f8:	f1 df       	rcall	.-30     	; 0x17dc <__fp_splitA>
    17fa:	08 c0       	rjmp	.+16     	; 0x180c <__fp_splitA+0x30>
    17fc:	16 16       	cp	r1, r22
    17fe:	17 06       	cpc	r1, r23
    1800:	18 06       	cpc	r1, r24
    1802:	99 1f       	adc	r25, r25
    1804:	f1 cf       	rjmp	.-30     	; 0x17e8 <__fp_splitA+0xc>
    1806:	86 95       	lsr	r24
    1808:	71 05       	cpc	r23, r1
    180a:	61 05       	cpc	r22, r1
    180c:	08 94       	sec
    180e:	08 95       	ret

00001810 <__fp_zero>:
    1810:	e8 94       	clt

00001812 <__fp_szero>:
    1812:	bb 27       	eor	r27, r27
    1814:	66 27       	eor	r22, r22
    1816:	77 27       	eor	r23, r23
    1818:	cb 01       	movw	r24, r22
    181a:	97 f9       	bld	r25, 7
    181c:	08 95       	ret

0000181e <__mulsf3>:
    181e:	0b d0       	rcall	.+22     	; 0x1836 <__mulsf3x>
    1820:	c4 cf       	rjmp	.-120    	; 0x17aa <__fp_round>
    1822:	b5 df       	rcall	.-150    	; 0x178e <__fp_pscA>
    1824:	28 f0       	brcs	.+10     	; 0x1830 <__mulsf3+0x12>
    1826:	ba df       	rcall	.-140    	; 0x179c <__fp_pscB>
    1828:	18 f0       	brcs	.+6      	; 0x1830 <__mulsf3+0x12>
    182a:	95 23       	and	r25, r21
    182c:	09 f0       	breq	.+2      	; 0x1830 <__mulsf3+0x12>
    182e:	a6 cf       	rjmp	.-180    	; 0x177c <__fp_inf>
    1830:	ab cf       	rjmp	.-170    	; 0x1788 <__fp_nan>
    1832:	11 24       	eor	r1, r1
    1834:	ee cf       	rjmp	.-36     	; 0x1812 <__fp_szero>

00001836 <__mulsf3x>:
    1836:	ca df       	rcall	.-108    	; 0x17cc <__fp_split3>
    1838:	a0 f3       	brcs	.-24     	; 0x1822 <__mulsf3+0x4>

0000183a <__mulsf3_pse>:
    183a:	95 9f       	mul	r25, r21
    183c:	d1 f3       	breq	.-12     	; 0x1832 <__mulsf3+0x14>
    183e:	95 0f       	add	r25, r21
    1840:	50 e0       	ldi	r21, 0x00	; 0
    1842:	55 1f       	adc	r21, r21
    1844:	62 9f       	mul	r22, r18
    1846:	f0 01       	movw	r30, r0
    1848:	72 9f       	mul	r23, r18
    184a:	bb 27       	eor	r27, r27
    184c:	f0 0d       	add	r31, r0
    184e:	b1 1d       	adc	r27, r1
    1850:	63 9f       	mul	r22, r19
    1852:	aa 27       	eor	r26, r26
    1854:	f0 0d       	add	r31, r0
    1856:	b1 1d       	adc	r27, r1
    1858:	aa 1f       	adc	r26, r26
    185a:	64 9f       	mul	r22, r20
    185c:	66 27       	eor	r22, r22
    185e:	b0 0d       	add	r27, r0
    1860:	a1 1d       	adc	r26, r1
    1862:	66 1f       	adc	r22, r22
    1864:	82 9f       	mul	r24, r18
    1866:	22 27       	eor	r18, r18
    1868:	b0 0d       	add	r27, r0
    186a:	a1 1d       	adc	r26, r1
    186c:	62 1f       	adc	r22, r18
    186e:	73 9f       	mul	r23, r19
    1870:	b0 0d       	add	r27, r0
    1872:	a1 1d       	adc	r26, r1
    1874:	62 1f       	adc	r22, r18
    1876:	83 9f       	mul	r24, r19
    1878:	a0 0d       	add	r26, r0
    187a:	61 1d       	adc	r22, r1
    187c:	22 1f       	adc	r18, r18
    187e:	74 9f       	mul	r23, r20
    1880:	33 27       	eor	r19, r19
    1882:	a0 0d       	add	r26, r0
    1884:	61 1d       	adc	r22, r1
    1886:	23 1f       	adc	r18, r19
    1888:	84 9f       	mul	r24, r20
    188a:	60 0d       	add	r22, r0
    188c:	21 1d       	adc	r18, r1
    188e:	82 2f       	mov	r24, r18
    1890:	76 2f       	mov	r23, r22
    1892:	6a 2f       	mov	r22, r26
    1894:	11 24       	eor	r1, r1
    1896:	9f 57       	subi	r25, 0x7F	; 127
    1898:	50 40       	sbci	r21, 0x00	; 0
    189a:	8a f0       	brmi	.+34     	; 0x18be <__mulsf3_pse+0x84>
    189c:	e1 f0       	breq	.+56     	; 0x18d6 <__mulsf3_pse+0x9c>
    189e:	88 23       	and	r24, r24
    18a0:	4a f0       	brmi	.+18     	; 0x18b4 <__mulsf3_pse+0x7a>
    18a2:	ee 0f       	add	r30, r30
    18a4:	ff 1f       	adc	r31, r31
    18a6:	bb 1f       	adc	r27, r27
    18a8:	66 1f       	adc	r22, r22
    18aa:	77 1f       	adc	r23, r23
    18ac:	88 1f       	adc	r24, r24
    18ae:	91 50       	subi	r25, 0x01	; 1
    18b0:	50 40       	sbci	r21, 0x00	; 0
    18b2:	a9 f7       	brne	.-22     	; 0x189e <__mulsf3_pse+0x64>
    18b4:	9e 3f       	cpi	r25, 0xFE	; 254
    18b6:	51 05       	cpc	r21, r1
    18b8:	70 f0       	brcs	.+28     	; 0x18d6 <__mulsf3_pse+0x9c>
    18ba:	60 cf       	rjmp	.-320    	; 0x177c <__fp_inf>
    18bc:	aa cf       	rjmp	.-172    	; 0x1812 <__fp_szero>
    18be:	5f 3f       	cpi	r21, 0xFF	; 255
    18c0:	ec f3       	brlt	.-6      	; 0x18bc <__mulsf3_pse+0x82>
    18c2:	98 3e       	cpi	r25, 0xE8	; 232
    18c4:	dc f3       	brlt	.-10     	; 0x18bc <__mulsf3_pse+0x82>
    18c6:	86 95       	lsr	r24
    18c8:	77 95       	ror	r23
    18ca:	67 95       	ror	r22
    18cc:	b7 95       	ror	r27
    18ce:	f7 95       	ror	r31
    18d0:	e7 95       	ror	r30
    18d2:	9f 5f       	subi	r25, 0xFF	; 255
    18d4:	c1 f7       	brne	.-16     	; 0x18c6 <__mulsf3_pse+0x8c>
    18d6:	fe 2b       	or	r31, r30
    18d8:	88 0f       	add	r24, r24
    18da:	91 1d       	adc	r25, r1
    18dc:	96 95       	lsr	r25
    18de:	87 95       	ror	r24
    18e0:	97 f9       	bld	r25, 7
    18e2:	08 95       	ret

000018e4 <__udivmodhi4>:
    18e4:	aa 1b       	sub	r26, r26
    18e6:	bb 1b       	sub	r27, r27
    18e8:	51 e1       	ldi	r21, 0x11	; 17
    18ea:	07 c0       	rjmp	.+14     	; 0x18fa <__udivmodhi4_ep>

000018ec <__udivmodhi4_loop>:
    18ec:	aa 1f       	adc	r26, r26
    18ee:	bb 1f       	adc	r27, r27
    18f0:	a6 17       	cp	r26, r22
    18f2:	b7 07       	cpc	r27, r23
    18f4:	10 f0       	brcs	.+4      	; 0x18fa <__udivmodhi4_ep>
    18f6:	a6 1b       	sub	r26, r22
    18f8:	b7 0b       	sbc	r27, r23

000018fa <__udivmodhi4_ep>:
    18fa:	88 1f       	adc	r24, r24
    18fc:	99 1f       	adc	r25, r25
    18fe:	5a 95       	dec	r21
    1900:	a9 f7       	brne	.-22     	; 0x18ec <__udivmodhi4_loop>
    1902:	80 95       	com	r24
    1904:	90 95       	com	r25
    1906:	bc 01       	movw	r22, r24
    1908:	cd 01       	movw	r24, r26
    190a:	08 95       	ret

0000190c <__divmodhi4>:
    190c:	97 fb       	bst	r25, 7
    190e:	07 2e       	mov	r0, r23
    1910:	16 f4       	brtc	.+4      	; 0x1916 <__divmodhi4+0xa>
    1912:	00 94       	com	r0
    1914:	06 d0       	rcall	.+12     	; 0x1922 <__divmodhi4_neg1>
    1916:	77 fd       	sbrc	r23, 7
    1918:	08 d0       	rcall	.+16     	; 0x192a <__divmodhi4_neg2>
    191a:	e4 df       	rcall	.-56     	; 0x18e4 <__udivmodhi4>
    191c:	07 fc       	sbrc	r0, 7
    191e:	05 d0       	rcall	.+10     	; 0x192a <__divmodhi4_neg2>
    1920:	3e f4       	brtc	.+14     	; 0x1930 <__divmodhi4_exit>

00001922 <__divmodhi4_neg1>:
    1922:	90 95       	com	r25
    1924:	81 95       	neg	r24
    1926:	9f 4f       	sbci	r25, 0xFF	; 255
    1928:	08 95       	ret

0000192a <__divmodhi4_neg2>:
    192a:	70 95       	com	r23
    192c:	61 95       	neg	r22
    192e:	7f 4f       	sbci	r23, 0xFF	; 255

00001930 <__divmodhi4_exit>:
    1930:	08 95       	ret

00001932 <__udivmodsi4>:
    1932:	a1 e2       	ldi	r26, 0x21	; 33
    1934:	1a 2e       	mov	r1, r26
    1936:	aa 1b       	sub	r26, r26
    1938:	bb 1b       	sub	r27, r27
    193a:	fd 01       	movw	r30, r26
    193c:	0d c0       	rjmp	.+26     	; 0x1958 <__udivmodsi4_ep>

0000193e <__udivmodsi4_loop>:
    193e:	aa 1f       	adc	r26, r26
    1940:	bb 1f       	adc	r27, r27
    1942:	ee 1f       	adc	r30, r30
    1944:	ff 1f       	adc	r31, r31
    1946:	a2 17       	cp	r26, r18
    1948:	b3 07       	cpc	r27, r19
    194a:	e4 07       	cpc	r30, r20
    194c:	f5 07       	cpc	r31, r21
    194e:	20 f0       	brcs	.+8      	; 0x1958 <__udivmodsi4_ep>
    1950:	a2 1b       	sub	r26, r18
    1952:	b3 0b       	sbc	r27, r19
    1954:	e4 0b       	sbc	r30, r20
    1956:	f5 0b       	sbc	r31, r21

00001958 <__udivmodsi4_ep>:
    1958:	66 1f       	adc	r22, r22
    195a:	77 1f       	adc	r23, r23
    195c:	88 1f       	adc	r24, r24
    195e:	99 1f       	adc	r25, r25
    1960:	1a 94       	dec	r1
    1962:	69 f7       	brne	.-38     	; 0x193e <__udivmodsi4_loop>
    1964:	60 95       	com	r22
    1966:	70 95       	com	r23
    1968:	80 95       	com	r24
    196a:	90 95       	com	r25
    196c:	9b 01       	movw	r18, r22
    196e:	ac 01       	movw	r20, r24
    1970:	bd 01       	movw	r22, r26
    1972:	cf 01       	movw	r24, r30
    1974:	08 95       	ret

00001976 <__divmodsi4>:
    1976:	05 2e       	mov	r0, r21
    1978:	97 fb       	bst	r25, 7
    197a:	16 f4       	brtc	.+4      	; 0x1980 <__divmodsi4+0xa>
    197c:	00 94       	com	r0
    197e:	0f d0       	rcall	.+30     	; 0x199e <__negsi2>
    1980:	57 fd       	sbrc	r21, 7
    1982:	05 d0       	rcall	.+10     	; 0x198e <__divmodsi4_neg2>
    1984:	d6 df       	rcall	.-84     	; 0x1932 <__udivmodsi4>
    1986:	07 fc       	sbrc	r0, 7
    1988:	02 d0       	rcall	.+4      	; 0x198e <__divmodsi4_neg2>
    198a:	46 f4       	brtc	.+16     	; 0x199c <__divmodsi4_exit>
    198c:	08 c0       	rjmp	.+16     	; 0x199e <__negsi2>

0000198e <__divmodsi4_neg2>:
    198e:	50 95       	com	r21
    1990:	40 95       	com	r20
    1992:	30 95       	com	r19
    1994:	21 95       	neg	r18
    1996:	3f 4f       	sbci	r19, 0xFF	; 255
    1998:	4f 4f       	sbci	r20, 0xFF	; 255
    199a:	5f 4f       	sbci	r21, 0xFF	; 255

0000199c <__divmodsi4_exit>:
    199c:	08 95       	ret

0000199e <__negsi2>:
    199e:	90 95       	com	r25
    19a0:	80 95       	com	r24
    19a2:	70 95       	com	r23
    19a4:	61 95       	neg	r22
    19a6:	7f 4f       	sbci	r23, 0xFF	; 255
    19a8:	8f 4f       	sbci	r24, 0xFF	; 255
    19aa:	9f 4f       	sbci	r25, 0xFF	; 255
    19ac:	08 95       	ret

000019ae <__umulhisi3>:
    19ae:	a2 9f       	mul	r26, r18
    19b0:	b0 01       	movw	r22, r0
    19b2:	b3 9f       	mul	r27, r19
    19b4:	c0 01       	movw	r24, r0
    19b6:	a3 9f       	mul	r26, r19
    19b8:	01 d0       	rcall	.+2      	; 0x19bc <__umulhisi3+0xe>
    19ba:	b2 9f       	mul	r27, r18
    19bc:	70 0d       	add	r23, r0
    19be:	81 1d       	adc	r24, r1
    19c0:	11 24       	eor	r1, r1
    19c2:	91 1d       	adc	r25, r1
    19c4:	08 95       	ret

000019c6 <__muluhisi3>:
    19c6:	f3 df       	rcall	.-26     	; 0x19ae <__umulhisi3>
    19c8:	a5 9f       	mul	r26, r21
    19ca:	90 0d       	add	r25, r0
    19cc:	b4 9f       	mul	r27, r20
    19ce:	90 0d       	add	r25, r0
    19d0:	a4 9f       	mul	r26, r20
    19d2:	80 0d       	add	r24, r0
    19d4:	91 1d       	adc	r25, r1
    19d6:	11 24       	eor	r1, r1
    19d8:	08 95       	ret

000019da <__mulshisi3>:
    19da:	b7 ff       	sbrs	r27, 7
    19dc:	f4 cf       	rjmp	.-24     	; 0x19c6 <__muluhisi3>

000019de <__mulohisi3>:
    19de:	f3 df       	rcall	.-26     	; 0x19c6 <__muluhisi3>
    19e0:	82 1b       	sub	r24, r18
    19e2:	93 0b       	sbc	r25, r19
    19e4:	08 95       	ret

000019e6 <__tablejump2__>:
    19e6:	ee 0f       	add	r30, r30
    19e8:	ff 1f       	adc	r31, r31
    19ea:	05 90       	lpm	r0, Z+
    19ec:	f4 91       	lpm	r31, Z
    19ee:	e0 2d       	mov	r30, r0
    19f0:	09 94       	ijmp

000019f2 <sprintf>:
    19f2:	ae e0       	ldi	r26, 0x0E	; 14
    19f4:	b0 e0       	ldi	r27, 0x00	; 0
    19f6:	ee ef       	ldi	r30, 0xFE	; 254
    19f8:	fc e0       	ldi	r31, 0x0C	; 12
    19fa:	b2 c2       	rjmp	.+1380   	; 0x1f60 <__prologue_saves__+0x1c>
    19fc:	0d 89       	ldd	r16, Y+21	; 0x15
    19fe:	1e 89       	ldd	r17, Y+22	; 0x16
    1a00:	86 e0       	ldi	r24, 0x06	; 6
    1a02:	8c 83       	std	Y+4, r24	; 0x04
    1a04:	1a 83       	std	Y+2, r17	; 0x02
    1a06:	09 83       	std	Y+1, r16	; 0x01
    1a08:	8f ef       	ldi	r24, 0xFF	; 255
    1a0a:	9f e7       	ldi	r25, 0x7F	; 127
    1a0c:	9e 83       	std	Y+6, r25	; 0x06
    1a0e:	8d 83       	std	Y+5, r24	; 0x05
    1a10:	ae 01       	movw	r20, r28
    1a12:	47 5e       	subi	r20, 0xE7	; 231
    1a14:	5f 4f       	sbci	r21, 0xFF	; 255
    1a16:	6f 89       	ldd	r22, Y+23	; 0x17
    1a18:	78 8d       	ldd	r23, Y+24	; 0x18
    1a1a:	ce 01       	movw	r24, r28
    1a1c:	01 96       	adiw	r24, 0x01	; 1
    1a1e:	08 d0       	rcall	.+16     	; 0x1a30 <vfprintf>
    1a20:	ef 81       	ldd	r30, Y+7	; 0x07
    1a22:	f8 85       	ldd	r31, Y+8	; 0x08
    1a24:	e0 0f       	add	r30, r16
    1a26:	f1 1f       	adc	r31, r17
    1a28:	10 82       	st	Z, r1
    1a2a:	2e 96       	adiw	r28, 0x0e	; 14
    1a2c:	e4 e0       	ldi	r30, 0x04	; 4
    1a2e:	b4 c2       	rjmp	.+1384   	; 0x1f98 <__epilogue_restores__+0x1c>

00001a30 <vfprintf>:
    1a30:	ab e0       	ldi	r26, 0x0B	; 11
    1a32:	b0 e0       	ldi	r27, 0x00	; 0
    1a34:	ed e1       	ldi	r30, 0x1D	; 29
    1a36:	fd e0       	ldi	r31, 0x0D	; 13
    1a38:	85 c2       	rjmp	.+1290   	; 0x1f44 <__prologue_saves__>
    1a3a:	6c 01       	movw	r12, r24
    1a3c:	7b 01       	movw	r14, r22
    1a3e:	8a 01       	movw	r16, r20
    1a40:	fc 01       	movw	r30, r24
    1a42:	17 82       	std	Z+7, r1	; 0x07
    1a44:	16 82       	std	Z+6, r1	; 0x06
    1a46:	83 81       	ldd	r24, Z+3	; 0x03
    1a48:	81 ff       	sbrs	r24, 1
    1a4a:	bf c1       	rjmp	.+894    	; 0x1dca <vfprintf+0x39a>
    1a4c:	ce 01       	movw	r24, r28
    1a4e:	01 96       	adiw	r24, 0x01	; 1
    1a50:	3c 01       	movw	r6, r24
    1a52:	f6 01       	movw	r30, r12
    1a54:	93 81       	ldd	r25, Z+3	; 0x03
    1a56:	f7 01       	movw	r30, r14
    1a58:	93 fd       	sbrc	r25, 3
    1a5a:	85 91       	lpm	r24, Z+
    1a5c:	93 ff       	sbrs	r25, 3
    1a5e:	81 91       	ld	r24, Z+
    1a60:	7f 01       	movw	r14, r30
    1a62:	88 23       	and	r24, r24
    1a64:	09 f4       	brne	.+2      	; 0x1a68 <vfprintf+0x38>
    1a66:	ad c1       	rjmp	.+858    	; 0x1dc2 <vfprintf+0x392>
    1a68:	85 32       	cpi	r24, 0x25	; 37
    1a6a:	39 f4       	brne	.+14     	; 0x1a7a <vfprintf+0x4a>
    1a6c:	93 fd       	sbrc	r25, 3
    1a6e:	85 91       	lpm	r24, Z+
    1a70:	93 ff       	sbrs	r25, 3
    1a72:	81 91       	ld	r24, Z+
    1a74:	7f 01       	movw	r14, r30
    1a76:	85 32       	cpi	r24, 0x25	; 37
    1a78:	21 f4       	brne	.+8      	; 0x1a82 <vfprintf+0x52>
    1a7a:	b6 01       	movw	r22, r12
    1a7c:	90 e0       	ldi	r25, 0x00	; 0
    1a7e:	c0 d1       	rcall	.+896    	; 0x1e00 <fputc>
    1a80:	e8 cf       	rjmp	.-48     	; 0x1a52 <vfprintf+0x22>
    1a82:	91 2c       	mov	r9, r1
    1a84:	21 2c       	mov	r2, r1
    1a86:	31 2c       	mov	r3, r1
    1a88:	ff e1       	ldi	r31, 0x1F	; 31
    1a8a:	f3 15       	cp	r31, r3
    1a8c:	d8 f0       	brcs	.+54     	; 0x1ac4 <vfprintf+0x94>
    1a8e:	8b 32       	cpi	r24, 0x2B	; 43
    1a90:	79 f0       	breq	.+30     	; 0x1ab0 <vfprintf+0x80>
    1a92:	38 f4       	brcc	.+14     	; 0x1aa2 <vfprintf+0x72>
    1a94:	80 32       	cpi	r24, 0x20	; 32
    1a96:	79 f0       	breq	.+30     	; 0x1ab6 <vfprintf+0x86>
    1a98:	83 32       	cpi	r24, 0x23	; 35
    1a9a:	a1 f4       	brne	.+40     	; 0x1ac4 <vfprintf+0x94>
    1a9c:	23 2d       	mov	r18, r3
    1a9e:	20 61       	ori	r18, 0x10	; 16
    1aa0:	1d c0       	rjmp	.+58     	; 0x1adc <vfprintf+0xac>
    1aa2:	8d 32       	cpi	r24, 0x2D	; 45
    1aa4:	61 f0       	breq	.+24     	; 0x1abe <vfprintf+0x8e>
    1aa6:	80 33       	cpi	r24, 0x30	; 48
    1aa8:	69 f4       	brne	.+26     	; 0x1ac4 <vfprintf+0x94>
    1aaa:	23 2d       	mov	r18, r3
    1aac:	21 60       	ori	r18, 0x01	; 1
    1aae:	16 c0       	rjmp	.+44     	; 0x1adc <vfprintf+0xac>
    1ab0:	83 2d       	mov	r24, r3
    1ab2:	82 60       	ori	r24, 0x02	; 2
    1ab4:	38 2e       	mov	r3, r24
    1ab6:	e3 2d       	mov	r30, r3
    1ab8:	e4 60       	ori	r30, 0x04	; 4
    1aba:	3e 2e       	mov	r3, r30
    1abc:	2a c0       	rjmp	.+84     	; 0x1b12 <vfprintf+0xe2>
    1abe:	f3 2d       	mov	r31, r3
    1ac0:	f8 60       	ori	r31, 0x08	; 8
    1ac2:	1d c0       	rjmp	.+58     	; 0x1afe <vfprintf+0xce>
    1ac4:	37 fc       	sbrc	r3, 7
    1ac6:	2d c0       	rjmp	.+90     	; 0x1b22 <vfprintf+0xf2>
    1ac8:	20 ed       	ldi	r18, 0xD0	; 208
    1aca:	28 0f       	add	r18, r24
    1acc:	2a 30       	cpi	r18, 0x0A	; 10
    1ace:	40 f0       	brcs	.+16     	; 0x1ae0 <vfprintf+0xb0>
    1ad0:	8e 32       	cpi	r24, 0x2E	; 46
    1ad2:	b9 f4       	brne	.+46     	; 0x1b02 <vfprintf+0xd2>
    1ad4:	36 fc       	sbrc	r3, 6
    1ad6:	75 c1       	rjmp	.+746    	; 0x1dc2 <vfprintf+0x392>
    1ad8:	23 2d       	mov	r18, r3
    1ada:	20 64       	ori	r18, 0x40	; 64
    1adc:	32 2e       	mov	r3, r18
    1ade:	19 c0       	rjmp	.+50     	; 0x1b12 <vfprintf+0xe2>
    1ae0:	36 fe       	sbrs	r3, 6
    1ae2:	06 c0       	rjmp	.+12     	; 0x1af0 <vfprintf+0xc0>
    1ae4:	8a e0       	ldi	r24, 0x0A	; 10
    1ae6:	98 9e       	mul	r9, r24
    1ae8:	20 0d       	add	r18, r0
    1aea:	11 24       	eor	r1, r1
    1aec:	92 2e       	mov	r9, r18
    1aee:	11 c0       	rjmp	.+34     	; 0x1b12 <vfprintf+0xe2>
    1af0:	ea e0       	ldi	r30, 0x0A	; 10
    1af2:	2e 9e       	mul	r2, r30
    1af4:	20 0d       	add	r18, r0
    1af6:	11 24       	eor	r1, r1
    1af8:	22 2e       	mov	r2, r18
    1afa:	f3 2d       	mov	r31, r3
    1afc:	f0 62       	ori	r31, 0x20	; 32
    1afe:	3f 2e       	mov	r3, r31
    1b00:	08 c0       	rjmp	.+16     	; 0x1b12 <vfprintf+0xe2>
    1b02:	8c 36       	cpi	r24, 0x6C	; 108
    1b04:	21 f4       	brne	.+8      	; 0x1b0e <vfprintf+0xde>
    1b06:	83 2d       	mov	r24, r3
    1b08:	80 68       	ori	r24, 0x80	; 128
    1b0a:	38 2e       	mov	r3, r24
    1b0c:	02 c0       	rjmp	.+4      	; 0x1b12 <vfprintf+0xe2>
    1b0e:	88 36       	cpi	r24, 0x68	; 104
    1b10:	41 f4       	brne	.+16     	; 0x1b22 <vfprintf+0xf2>
    1b12:	f7 01       	movw	r30, r14
    1b14:	93 fd       	sbrc	r25, 3
    1b16:	85 91       	lpm	r24, Z+
    1b18:	93 ff       	sbrs	r25, 3
    1b1a:	81 91       	ld	r24, Z+
    1b1c:	7f 01       	movw	r14, r30
    1b1e:	81 11       	cpse	r24, r1
    1b20:	b3 cf       	rjmp	.-154    	; 0x1a88 <vfprintf+0x58>
    1b22:	98 2f       	mov	r25, r24
    1b24:	9f 7d       	andi	r25, 0xDF	; 223
    1b26:	95 54       	subi	r25, 0x45	; 69
    1b28:	93 30       	cpi	r25, 0x03	; 3
    1b2a:	28 f4       	brcc	.+10     	; 0x1b36 <vfprintf+0x106>
    1b2c:	0c 5f       	subi	r16, 0xFC	; 252
    1b2e:	1f 4f       	sbci	r17, 0xFF	; 255
    1b30:	9f e3       	ldi	r25, 0x3F	; 63
    1b32:	99 83       	std	Y+1, r25	; 0x01
    1b34:	0d c0       	rjmp	.+26     	; 0x1b50 <vfprintf+0x120>
    1b36:	83 36       	cpi	r24, 0x63	; 99
    1b38:	31 f0       	breq	.+12     	; 0x1b46 <vfprintf+0x116>
    1b3a:	83 37       	cpi	r24, 0x73	; 115
    1b3c:	71 f0       	breq	.+28     	; 0x1b5a <vfprintf+0x12a>
    1b3e:	83 35       	cpi	r24, 0x53	; 83
    1b40:	09 f0       	breq	.+2      	; 0x1b44 <vfprintf+0x114>
    1b42:	55 c0       	rjmp	.+170    	; 0x1bee <vfprintf+0x1be>
    1b44:	20 c0       	rjmp	.+64     	; 0x1b86 <vfprintf+0x156>
    1b46:	f8 01       	movw	r30, r16
    1b48:	80 81       	ld	r24, Z
    1b4a:	89 83       	std	Y+1, r24	; 0x01
    1b4c:	0e 5f       	subi	r16, 0xFE	; 254
    1b4e:	1f 4f       	sbci	r17, 0xFF	; 255
    1b50:	88 24       	eor	r8, r8
    1b52:	83 94       	inc	r8
    1b54:	91 2c       	mov	r9, r1
    1b56:	53 01       	movw	r10, r6
    1b58:	12 c0       	rjmp	.+36     	; 0x1b7e <vfprintf+0x14e>
    1b5a:	28 01       	movw	r4, r16
    1b5c:	f2 e0       	ldi	r31, 0x02	; 2
    1b5e:	4f 0e       	add	r4, r31
    1b60:	51 1c       	adc	r5, r1
    1b62:	f8 01       	movw	r30, r16
    1b64:	a0 80       	ld	r10, Z
    1b66:	b1 80       	ldd	r11, Z+1	; 0x01
    1b68:	36 fe       	sbrs	r3, 6
    1b6a:	03 c0       	rjmp	.+6      	; 0x1b72 <vfprintf+0x142>
    1b6c:	69 2d       	mov	r22, r9
    1b6e:	70 e0       	ldi	r23, 0x00	; 0
    1b70:	02 c0       	rjmp	.+4      	; 0x1b76 <vfprintf+0x146>
    1b72:	6f ef       	ldi	r22, 0xFF	; 255
    1b74:	7f ef       	ldi	r23, 0xFF	; 255
    1b76:	c5 01       	movw	r24, r10
    1b78:	38 d1       	rcall	.+624    	; 0x1dea <strnlen>
    1b7a:	4c 01       	movw	r8, r24
    1b7c:	82 01       	movw	r16, r4
    1b7e:	f3 2d       	mov	r31, r3
    1b80:	ff 77       	andi	r31, 0x7F	; 127
    1b82:	3f 2e       	mov	r3, r31
    1b84:	15 c0       	rjmp	.+42     	; 0x1bb0 <vfprintf+0x180>
    1b86:	28 01       	movw	r4, r16
    1b88:	22 e0       	ldi	r18, 0x02	; 2
    1b8a:	42 0e       	add	r4, r18
    1b8c:	51 1c       	adc	r5, r1
    1b8e:	f8 01       	movw	r30, r16
    1b90:	a0 80       	ld	r10, Z
    1b92:	b1 80       	ldd	r11, Z+1	; 0x01
    1b94:	36 fe       	sbrs	r3, 6
    1b96:	03 c0       	rjmp	.+6      	; 0x1b9e <vfprintf+0x16e>
    1b98:	69 2d       	mov	r22, r9
    1b9a:	70 e0       	ldi	r23, 0x00	; 0
    1b9c:	02 c0       	rjmp	.+4      	; 0x1ba2 <vfprintf+0x172>
    1b9e:	6f ef       	ldi	r22, 0xFF	; 255
    1ba0:	7f ef       	ldi	r23, 0xFF	; 255
    1ba2:	c5 01       	movw	r24, r10
    1ba4:	17 d1       	rcall	.+558    	; 0x1dd4 <strnlen_P>
    1ba6:	4c 01       	movw	r8, r24
    1ba8:	f3 2d       	mov	r31, r3
    1baa:	f0 68       	ori	r31, 0x80	; 128
    1bac:	3f 2e       	mov	r3, r31
    1bae:	82 01       	movw	r16, r4
    1bb0:	33 fc       	sbrc	r3, 3
    1bb2:	19 c0       	rjmp	.+50     	; 0x1be6 <vfprintf+0x1b6>
    1bb4:	82 2d       	mov	r24, r2
    1bb6:	90 e0       	ldi	r25, 0x00	; 0
    1bb8:	88 16       	cp	r8, r24
    1bba:	99 06       	cpc	r9, r25
    1bbc:	a0 f4       	brcc	.+40     	; 0x1be6 <vfprintf+0x1b6>
    1bbe:	b6 01       	movw	r22, r12
    1bc0:	80 e2       	ldi	r24, 0x20	; 32
    1bc2:	90 e0       	ldi	r25, 0x00	; 0
    1bc4:	1d d1       	rcall	.+570    	; 0x1e00 <fputc>
    1bc6:	2a 94       	dec	r2
    1bc8:	f5 cf       	rjmp	.-22     	; 0x1bb4 <vfprintf+0x184>
    1bca:	f5 01       	movw	r30, r10
    1bcc:	37 fc       	sbrc	r3, 7
    1bce:	85 91       	lpm	r24, Z+
    1bd0:	37 fe       	sbrs	r3, 7
    1bd2:	81 91       	ld	r24, Z+
    1bd4:	5f 01       	movw	r10, r30
    1bd6:	b6 01       	movw	r22, r12
    1bd8:	90 e0       	ldi	r25, 0x00	; 0
    1bda:	12 d1       	rcall	.+548    	; 0x1e00 <fputc>
    1bdc:	21 10       	cpse	r2, r1
    1bde:	2a 94       	dec	r2
    1be0:	21 e0       	ldi	r18, 0x01	; 1
    1be2:	82 1a       	sub	r8, r18
    1be4:	91 08       	sbc	r9, r1
    1be6:	81 14       	cp	r8, r1
    1be8:	91 04       	cpc	r9, r1
    1bea:	79 f7       	brne	.-34     	; 0x1bca <vfprintf+0x19a>
    1bec:	e1 c0       	rjmp	.+450    	; 0x1db0 <vfprintf+0x380>
    1bee:	84 36       	cpi	r24, 0x64	; 100
    1bf0:	11 f0       	breq	.+4      	; 0x1bf6 <vfprintf+0x1c6>
    1bf2:	89 36       	cpi	r24, 0x69	; 105
    1bf4:	39 f5       	brne	.+78     	; 0x1c44 <vfprintf+0x214>
    1bf6:	f8 01       	movw	r30, r16
    1bf8:	37 fe       	sbrs	r3, 7
    1bfa:	07 c0       	rjmp	.+14     	; 0x1c0a <vfprintf+0x1da>
    1bfc:	60 81       	ld	r22, Z
    1bfe:	71 81       	ldd	r23, Z+1	; 0x01
    1c00:	82 81       	ldd	r24, Z+2	; 0x02
    1c02:	93 81       	ldd	r25, Z+3	; 0x03
    1c04:	0c 5f       	subi	r16, 0xFC	; 252
    1c06:	1f 4f       	sbci	r17, 0xFF	; 255
    1c08:	08 c0       	rjmp	.+16     	; 0x1c1a <vfprintf+0x1ea>
    1c0a:	60 81       	ld	r22, Z
    1c0c:	71 81       	ldd	r23, Z+1	; 0x01
    1c0e:	07 2e       	mov	r0, r23
    1c10:	00 0c       	add	r0, r0
    1c12:	88 0b       	sbc	r24, r24
    1c14:	99 0b       	sbc	r25, r25
    1c16:	0e 5f       	subi	r16, 0xFE	; 254
    1c18:	1f 4f       	sbci	r17, 0xFF	; 255
    1c1a:	f3 2d       	mov	r31, r3
    1c1c:	ff 76       	andi	r31, 0x6F	; 111
    1c1e:	3f 2e       	mov	r3, r31
    1c20:	97 ff       	sbrs	r25, 7
    1c22:	09 c0       	rjmp	.+18     	; 0x1c36 <vfprintf+0x206>
    1c24:	90 95       	com	r25
    1c26:	80 95       	com	r24
    1c28:	70 95       	com	r23
    1c2a:	61 95       	neg	r22
    1c2c:	7f 4f       	sbci	r23, 0xFF	; 255
    1c2e:	8f 4f       	sbci	r24, 0xFF	; 255
    1c30:	9f 4f       	sbci	r25, 0xFF	; 255
    1c32:	f0 68       	ori	r31, 0x80	; 128
    1c34:	3f 2e       	mov	r3, r31
    1c36:	2a e0       	ldi	r18, 0x0A	; 10
    1c38:	30 e0       	ldi	r19, 0x00	; 0
    1c3a:	a3 01       	movw	r20, r6
    1c3c:	1d d1       	rcall	.+570    	; 0x1e78 <__ultoa_invert>
    1c3e:	88 2e       	mov	r8, r24
    1c40:	86 18       	sub	r8, r6
    1c42:	44 c0       	rjmp	.+136    	; 0x1ccc <vfprintf+0x29c>
    1c44:	85 37       	cpi	r24, 0x75	; 117
    1c46:	31 f4       	brne	.+12     	; 0x1c54 <vfprintf+0x224>
    1c48:	23 2d       	mov	r18, r3
    1c4a:	2f 7e       	andi	r18, 0xEF	; 239
    1c4c:	b2 2e       	mov	r11, r18
    1c4e:	2a e0       	ldi	r18, 0x0A	; 10
    1c50:	30 e0       	ldi	r19, 0x00	; 0
    1c52:	25 c0       	rjmp	.+74     	; 0x1c9e <vfprintf+0x26e>
    1c54:	93 2d       	mov	r25, r3
    1c56:	99 7f       	andi	r25, 0xF9	; 249
    1c58:	b9 2e       	mov	r11, r25
    1c5a:	8f 36       	cpi	r24, 0x6F	; 111
    1c5c:	c1 f0       	breq	.+48     	; 0x1c8e <vfprintf+0x25e>
    1c5e:	18 f4       	brcc	.+6      	; 0x1c66 <vfprintf+0x236>
    1c60:	88 35       	cpi	r24, 0x58	; 88
    1c62:	79 f0       	breq	.+30     	; 0x1c82 <vfprintf+0x252>
    1c64:	ae c0       	rjmp	.+348    	; 0x1dc2 <vfprintf+0x392>
    1c66:	80 37       	cpi	r24, 0x70	; 112
    1c68:	19 f0       	breq	.+6      	; 0x1c70 <vfprintf+0x240>
    1c6a:	88 37       	cpi	r24, 0x78	; 120
    1c6c:	21 f0       	breq	.+8      	; 0x1c76 <vfprintf+0x246>
    1c6e:	a9 c0       	rjmp	.+338    	; 0x1dc2 <vfprintf+0x392>
    1c70:	e9 2f       	mov	r30, r25
    1c72:	e0 61       	ori	r30, 0x10	; 16
    1c74:	be 2e       	mov	r11, r30
    1c76:	b4 fe       	sbrs	r11, 4
    1c78:	0d c0       	rjmp	.+26     	; 0x1c94 <vfprintf+0x264>
    1c7a:	fb 2d       	mov	r31, r11
    1c7c:	f4 60       	ori	r31, 0x04	; 4
    1c7e:	bf 2e       	mov	r11, r31
    1c80:	09 c0       	rjmp	.+18     	; 0x1c94 <vfprintf+0x264>
    1c82:	34 fe       	sbrs	r3, 4
    1c84:	0a c0       	rjmp	.+20     	; 0x1c9a <vfprintf+0x26a>
    1c86:	29 2f       	mov	r18, r25
    1c88:	26 60       	ori	r18, 0x06	; 6
    1c8a:	b2 2e       	mov	r11, r18
    1c8c:	06 c0       	rjmp	.+12     	; 0x1c9a <vfprintf+0x26a>
    1c8e:	28 e0       	ldi	r18, 0x08	; 8
    1c90:	30 e0       	ldi	r19, 0x00	; 0
    1c92:	05 c0       	rjmp	.+10     	; 0x1c9e <vfprintf+0x26e>
    1c94:	20 e1       	ldi	r18, 0x10	; 16
    1c96:	30 e0       	ldi	r19, 0x00	; 0
    1c98:	02 c0       	rjmp	.+4      	; 0x1c9e <vfprintf+0x26e>
    1c9a:	20 e1       	ldi	r18, 0x10	; 16
    1c9c:	32 e0       	ldi	r19, 0x02	; 2
    1c9e:	f8 01       	movw	r30, r16
    1ca0:	b7 fe       	sbrs	r11, 7
    1ca2:	07 c0       	rjmp	.+14     	; 0x1cb2 <vfprintf+0x282>
    1ca4:	60 81       	ld	r22, Z
    1ca6:	71 81       	ldd	r23, Z+1	; 0x01
    1ca8:	82 81       	ldd	r24, Z+2	; 0x02
    1caa:	93 81       	ldd	r25, Z+3	; 0x03
    1cac:	0c 5f       	subi	r16, 0xFC	; 252
    1cae:	1f 4f       	sbci	r17, 0xFF	; 255
    1cb0:	06 c0       	rjmp	.+12     	; 0x1cbe <vfprintf+0x28e>
    1cb2:	60 81       	ld	r22, Z
    1cb4:	71 81       	ldd	r23, Z+1	; 0x01
    1cb6:	80 e0       	ldi	r24, 0x00	; 0
    1cb8:	90 e0       	ldi	r25, 0x00	; 0
    1cba:	0e 5f       	subi	r16, 0xFE	; 254
    1cbc:	1f 4f       	sbci	r17, 0xFF	; 255
    1cbe:	a3 01       	movw	r20, r6
    1cc0:	db d0       	rcall	.+438    	; 0x1e78 <__ultoa_invert>
    1cc2:	88 2e       	mov	r8, r24
    1cc4:	86 18       	sub	r8, r6
    1cc6:	fb 2d       	mov	r31, r11
    1cc8:	ff 77       	andi	r31, 0x7F	; 127
    1cca:	3f 2e       	mov	r3, r31
    1ccc:	36 fe       	sbrs	r3, 6
    1cce:	0d c0       	rjmp	.+26     	; 0x1cea <vfprintf+0x2ba>
    1cd0:	23 2d       	mov	r18, r3
    1cd2:	2e 7f       	andi	r18, 0xFE	; 254
    1cd4:	a2 2e       	mov	r10, r18
    1cd6:	89 14       	cp	r8, r9
    1cd8:	58 f4       	brcc	.+22     	; 0x1cf0 <vfprintf+0x2c0>
    1cda:	34 fe       	sbrs	r3, 4
    1cdc:	0b c0       	rjmp	.+22     	; 0x1cf4 <vfprintf+0x2c4>
    1cde:	32 fc       	sbrc	r3, 2
    1ce0:	09 c0       	rjmp	.+18     	; 0x1cf4 <vfprintf+0x2c4>
    1ce2:	83 2d       	mov	r24, r3
    1ce4:	8e 7e       	andi	r24, 0xEE	; 238
    1ce6:	a8 2e       	mov	r10, r24
    1ce8:	05 c0       	rjmp	.+10     	; 0x1cf4 <vfprintf+0x2c4>
    1cea:	b8 2c       	mov	r11, r8
    1cec:	a3 2c       	mov	r10, r3
    1cee:	03 c0       	rjmp	.+6      	; 0x1cf6 <vfprintf+0x2c6>
    1cf0:	b8 2c       	mov	r11, r8
    1cf2:	01 c0       	rjmp	.+2      	; 0x1cf6 <vfprintf+0x2c6>
    1cf4:	b9 2c       	mov	r11, r9
    1cf6:	a4 fe       	sbrs	r10, 4
    1cf8:	0f c0       	rjmp	.+30     	; 0x1d18 <vfprintf+0x2e8>
    1cfa:	fe 01       	movw	r30, r28
    1cfc:	e8 0d       	add	r30, r8
    1cfe:	f1 1d       	adc	r31, r1
    1d00:	80 81       	ld	r24, Z
    1d02:	80 33       	cpi	r24, 0x30	; 48
    1d04:	21 f4       	brne	.+8      	; 0x1d0e <vfprintf+0x2de>
    1d06:	9a 2d       	mov	r25, r10
    1d08:	99 7e       	andi	r25, 0xE9	; 233
    1d0a:	a9 2e       	mov	r10, r25
    1d0c:	09 c0       	rjmp	.+18     	; 0x1d20 <vfprintf+0x2f0>
    1d0e:	a2 fe       	sbrs	r10, 2
    1d10:	06 c0       	rjmp	.+12     	; 0x1d1e <vfprintf+0x2ee>
    1d12:	b3 94       	inc	r11
    1d14:	b3 94       	inc	r11
    1d16:	04 c0       	rjmp	.+8      	; 0x1d20 <vfprintf+0x2f0>
    1d18:	8a 2d       	mov	r24, r10
    1d1a:	86 78       	andi	r24, 0x86	; 134
    1d1c:	09 f0       	breq	.+2      	; 0x1d20 <vfprintf+0x2f0>
    1d1e:	b3 94       	inc	r11
    1d20:	a3 fc       	sbrc	r10, 3
    1d22:	10 c0       	rjmp	.+32     	; 0x1d44 <vfprintf+0x314>
    1d24:	a0 fe       	sbrs	r10, 0
    1d26:	06 c0       	rjmp	.+12     	; 0x1d34 <vfprintf+0x304>
    1d28:	b2 14       	cp	r11, r2
    1d2a:	80 f4       	brcc	.+32     	; 0x1d4c <vfprintf+0x31c>
    1d2c:	28 0c       	add	r2, r8
    1d2e:	92 2c       	mov	r9, r2
    1d30:	9b 18       	sub	r9, r11
    1d32:	0d c0       	rjmp	.+26     	; 0x1d4e <vfprintf+0x31e>
    1d34:	b2 14       	cp	r11, r2
    1d36:	58 f4       	brcc	.+22     	; 0x1d4e <vfprintf+0x31e>
    1d38:	b6 01       	movw	r22, r12
    1d3a:	80 e2       	ldi	r24, 0x20	; 32
    1d3c:	90 e0       	ldi	r25, 0x00	; 0
    1d3e:	60 d0       	rcall	.+192    	; 0x1e00 <fputc>
    1d40:	b3 94       	inc	r11
    1d42:	f8 cf       	rjmp	.-16     	; 0x1d34 <vfprintf+0x304>
    1d44:	b2 14       	cp	r11, r2
    1d46:	18 f4       	brcc	.+6      	; 0x1d4e <vfprintf+0x31e>
    1d48:	2b 18       	sub	r2, r11
    1d4a:	02 c0       	rjmp	.+4      	; 0x1d50 <vfprintf+0x320>
    1d4c:	98 2c       	mov	r9, r8
    1d4e:	21 2c       	mov	r2, r1
    1d50:	a4 fe       	sbrs	r10, 4
    1d52:	0f c0       	rjmp	.+30     	; 0x1d72 <vfprintf+0x342>
    1d54:	b6 01       	movw	r22, r12
    1d56:	80 e3       	ldi	r24, 0x30	; 48
    1d58:	90 e0       	ldi	r25, 0x00	; 0
    1d5a:	52 d0       	rcall	.+164    	; 0x1e00 <fputc>
    1d5c:	a2 fe       	sbrs	r10, 2
    1d5e:	16 c0       	rjmp	.+44     	; 0x1d8c <vfprintf+0x35c>
    1d60:	a1 fc       	sbrc	r10, 1
    1d62:	03 c0       	rjmp	.+6      	; 0x1d6a <vfprintf+0x33a>
    1d64:	88 e7       	ldi	r24, 0x78	; 120
    1d66:	90 e0       	ldi	r25, 0x00	; 0
    1d68:	02 c0       	rjmp	.+4      	; 0x1d6e <vfprintf+0x33e>
    1d6a:	88 e5       	ldi	r24, 0x58	; 88
    1d6c:	90 e0       	ldi	r25, 0x00	; 0
    1d6e:	b6 01       	movw	r22, r12
    1d70:	0c c0       	rjmp	.+24     	; 0x1d8a <vfprintf+0x35a>
    1d72:	8a 2d       	mov	r24, r10
    1d74:	86 78       	andi	r24, 0x86	; 134
    1d76:	51 f0       	breq	.+20     	; 0x1d8c <vfprintf+0x35c>
    1d78:	a1 fe       	sbrs	r10, 1
    1d7a:	02 c0       	rjmp	.+4      	; 0x1d80 <vfprintf+0x350>
    1d7c:	8b e2       	ldi	r24, 0x2B	; 43
    1d7e:	01 c0       	rjmp	.+2      	; 0x1d82 <vfprintf+0x352>
    1d80:	80 e2       	ldi	r24, 0x20	; 32
    1d82:	a7 fc       	sbrc	r10, 7
    1d84:	8d e2       	ldi	r24, 0x2D	; 45
    1d86:	b6 01       	movw	r22, r12
    1d88:	90 e0       	ldi	r25, 0x00	; 0
    1d8a:	3a d0       	rcall	.+116    	; 0x1e00 <fputc>
    1d8c:	89 14       	cp	r8, r9
    1d8e:	30 f4       	brcc	.+12     	; 0x1d9c <vfprintf+0x36c>
    1d90:	b6 01       	movw	r22, r12
    1d92:	80 e3       	ldi	r24, 0x30	; 48
    1d94:	90 e0       	ldi	r25, 0x00	; 0
    1d96:	34 d0       	rcall	.+104    	; 0x1e00 <fputc>
    1d98:	9a 94       	dec	r9
    1d9a:	f8 cf       	rjmp	.-16     	; 0x1d8c <vfprintf+0x35c>
    1d9c:	8a 94       	dec	r8
    1d9e:	f3 01       	movw	r30, r6
    1da0:	e8 0d       	add	r30, r8
    1da2:	f1 1d       	adc	r31, r1
    1da4:	80 81       	ld	r24, Z
    1da6:	b6 01       	movw	r22, r12
    1da8:	90 e0       	ldi	r25, 0x00	; 0
    1daa:	2a d0       	rcall	.+84     	; 0x1e00 <fputc>
    1dac:	81 10       	cpse	r8, r1
    1dae:	f6 cf       	rjmp	.-20     	; 0x1d9c <vfprintf+0x36c>
    1db0:	22 20       	and	r2, r2
    1db2:	09 f4       	brne	.+2      	; 0x1db6 <vfprintf+0x386>
    1db4:	4e ce       	rjmp	.-868    	; 0x1a52 <vfprintf+0x22>
    1db6:	b6 01       	movw	r22, r12
    1db8:	80 e2       	ldi	r24, 0x20	; 32
    1dba:	90 e0       	ldi	r25, 0x00	; 0
    1dbc:	21 d0       	rcall	.+66     	; 0x1e00 <fputc>
    1dbe:	2a 94       	dec	r2
    1dc0:	f7 cf       	rjmp	.-18     	; 0x1db0 <vfprintf+0x380>
    1dc2:	f6 01       	movw	r30, r12
    1dc4:	86 81       	ldd	r24, Z+6	; 0x06
    1dc6:	97 81       	ldd	r25, Z+7	; 0x07
    1dc8:	02 c0       	rjmp	.+4      	; 0x1dce <vfprintf+0x39e>
    1dca:	8f ef       	ldi	r24, 0xFF	; 255
    1dcc:	9f ef       	ldi	r25, 0xFF	; 255
    1dce:	2b 96       	adiw	r28, 0x0b	; 11
    1dd0:	e2 e1       	ldi	r30, 0x12	; 18
    1dd2:	d4 c0       	rjmp	.+424    	; 0x1f7c <__epilogue_restores__>

00001dd4 <strnlen_P>:
    1dd4:	fc 01       	movw	r30, r24
    1dd6:	05 90       	lpm	r0, Z+
    1dd8:	61 50       	subi	r22, 0x01	; 1
    1dda:	70 40       	sbci	r23, 0x00	; 0
    1ddc:	01 10       	cpse	r0, r1
    1dde:	d8 f7       	brcc	.-10     	; 0x1dd6 <strnlen_P+0x2>
    1de0:	80 95       	com	r24
    1de2:	90 95       	com	r25
    1de4:	8e 0f       	add	r24, r30
    1de6:	9f 1f       	adc	r25, r31
    1de8:	08 95       	ret

00001dea <strnlen>:
    1dea:	fc 01       	movw	r30, r24
    1dec:	61 50       	subi	r22, 0x01	; 1
    1dee:	70 40       	sbci	r23, 0x00	; 0
    1df0:	01 90       	ld	r0, Z+
    1df2:	01 10       	cpse	r0, r1
    1df4:	d8 f7       	brcc	.-10     	; 0x1dec <strnlen+0x2>
    1df6:	80 95       	com	r24
    1df8:	90 95       	com	r25
    1dfa:	8e 0f       	add	r24, r30
    1dfc:	9f 1f       	adc	r25, r31
    1dfe:	08 95       	ret

00001e00 <fputc>:
    1e00:	0f 93       	push	r16
    1e02:	1f 93       	push	r17
    1e04:	cf 93       	push	r28
    1e06:	df 93       	push	r29
    1e08:	fb 01       	movw	r30, r22
    1e0a:	23 81       	ldd	r18, Z+3	; 0x03
    1e0c:	21 fd       	sbrc	r18, 1
    1e0e:	03 c0       	rjmp	.+6      	; 0x1e16 <fputc+0x16>
    1e10:	8f ef       	ldi	r24, 0xFF	; 255
    1e12:	9f ef       	ldi	r25, 0xFF	; 255
    1e14:	2c c0       	rjmp	.+88     	; 0x1e6e <fputc+0x6e>
    1e16:	22 ff       	sbrs	r18, 2
    1e18:	16 c0       	rjmp	.+44     	; 0x1e46 <fputc+0x46>
    1e1a:	46 81       	ldd	r20, Z+6	; 0x06
    1e1c:	57 81       	ldd	r21, Z+7	; 0x07
    1e1e:	24 81       	ldd	r18, Z+4	; 0x04
    1e20:	35 81       	ldd	r19, Z+5	; 0x05
    1e22:	42 17       	cp	r20, r18
    1e24:	53 07       	cpc	r21, r19
    1e26:	44 f4       	brge	.+16     	; 0x1e38 <fputc+0x38>
    1e28:	a0 81       	ld	r26, Z
    1e2a:	b1 81       	ldd	r27, Z+1	; 0x01
    1e2c:	9d 01       	movw	r18, r26
    1e2e:	2f 5f       	subi	r18, 0xFF	; 255
    1e30:	3f 4f       	sbci	r19, 0xFF	; 255
    1e32:	31 83       	std	Z+1, r19	; 0x01
    1e34:	20 83       	st	Z, r18
    1e36:	8c 93       	st	X, r24
    1e38:	26 81       	ldd	r18, Z+6	; 0x06
    1e3a:	37 81       	ldd	r19, Z+7	; 0x07
    1e3c:	2f 5f       	subi	r18, 0xFF	; 255
    1e3e:	3f 4f       	sbci	r19, 0xFF	; 255
    1e40:	37 83       	std	Z+7, r19	; 0x07
    1e42:	26 83       	std	Z+6, r18	; 0x06
    1e44:	14 c0       	rjmp	.+40     	; 0x1e6e <fputc+0x6e>
    1e46:	8b 01       	movw	r16, r22
    1e48:	ec 01       	movw	r28, r24
    1e4a:	fb 01       	movw	r30, r22
    1e4c:	00 84       	ldd	r0, Z+8	; 0x08
    1e4e:	f1 85       	ldd	r31, Z+9	; 0x09
    1e50:	e0 2d       	mov	r30, r0
    1e52:	09 95       	icall
    1e54:	89 2b       	or	r24, r25
    1e56:	e1 f6       	brne	.-72     	; 0x1e10 <fputc+0x10>
    1e58:	d8 01       	movw	r26, r16
    1e5a:	16 96       	adiw	r26, 0x06	; 6
    1e5c:	8d 91       	ld	r24, X+
    1e5e:	9c 91       	ld	r25, X
    1e60:	17 97       	sbiw	r26, 0x07	; 7
    1e62:	01 96       	adiw	r24, 0x01	; 1
    1e64:	17 96       	adiw	r26, 0x07	; 7
    1e66:	9c 93       	st	X, r25
    1e68:	8e 93       	st	-X, r24
    1e6a:	16 97       	sbiw	r26, 0x06	; 6
    1e6c:	ce 01       	movw	r24, r28
    1e6e:	df 91       	pop	r29
    1e70:	cf 91       	pop	r28
    1e72:	1f 91       	pop	r17
    1e74:	0f 91       	pop	r16
    1e76:	08 95       	ret

00001e78 <__ultoa_invert>:
    1e78:	fa 01       	movw	r30, r20
    1e7a:	aa 27       	eor	r26, r26
    1e7c:	28 30       	cpi	r18, 0x08	; 8
    1e7e:	51 f1       	breq	.+84     	; 0x1ed4 <__ultoa_invert+0x5c>
    1e80:	20 31       	cpi	r18, 0x10	; 16
    1e82:	81 f1       	breq	.+96     	; 0x1ee4 <__ultoa_invert+0x6c>
    1e84:	e8 94       	clt
    1e86:	6f 93       	push	r22
    1e88:	6e 7f       	andi	r22, 0xFE	; 254
    1e8a:	6e 5f       	subi	r22, 0xFE	; 254
    1e8c:	7f 4f       	sbci	r23, 0xFF	; 255
    1e8e:	8f 4f       	sbci	r24, 0xFF	; 255
    1e90:	9f 4f       	sbci	r25, 0xFF	; 255
    1e92:	af 4f       	sbci	r26, 0xFF	; 255
    1e94:	b1 e0       	ldi	r27, 0x01	; 1
    1e96:	3e d0       	rcall	.+124    	; 0x1f14 <__ultoa_invert+0x9c>
    1e98:	b4 e0       	ldi	r27, 0x04	; 4
    1e9a:	3c d0       	rcall	.+120    	; 0x1f14 <__ultoa_invert+0x9c>
    1e9c:	67 0f       	add	r22, r23
    1e9e:	78 1f       	adc	r23, r24
    1ea0:	89 1f       	adc	r24, r25
    1ea2:	9a 1f       	adc	r25, r26
    1ea4:	a1 1d       	adc	r26, r1
    1ea6:	68 0f       	add	r22, r24
    1ea8:	79 1f       	adc	r23, r25
    1eaa:	8a 1f       	adc	r24, r26
    1eac:	91 1d       	adc	r25, r1
    1eae:	a1 1d       	adc	r26, r1
    1eb0:	6a 0f       	add	r22, r26
    1eb2:	71 1d       	adc	r23, r1
    1eb4:	81 1d       	adc	r24, r1
    1eb6:	91 1d       	adc	r25, r1
    1eb8:	a1 1d       	adc	r26, r1
    1eba:	20 d0       	rcall	.+64     	; 0x1efc <__ultoa_invert+0x84>
    1ebc:	09 f4       	brne	.+2      	; 0x1ec0 <__ultoa_invert+0x48>
    1ebe:	68 94       	set
    1ec0:	3f 91       	pop	r19
    1ec2:	2a e0       	ldi	r18, 0x0A	; 10
    1ec4:	26 9f       	mul	r18, r22
    1ec6:	11 24       	eor	r1, r1
    1ec8:	30 19       	sub	r19, r0
    1eca:	30 5d       	subi	r19, 0xD0	; 208
    1ecc:	31 93       	st	Z+, r19
    1ece:	de f6       	brtc	.-74     	; 0x1e86 <__ultoa_invert+0xe>
    1ed0:	cf 01       	movw	r24, r30
    1ed2:	08 95       	ret
    1ed4:	46 2f       	mov	r20, r22
    1ed6:	47 70       	andi	r20, 0x07	; 7
    1ed8:	40 5d       	subi	r20, 0xD0	; 208
    1eda:	41 93       	st	Z+, r20
    1edc:	b3 e0       	ldi	r27, 0x03	; 3
    1ede:	0f d0       	rcall	.+30     	; 0x1efe <__ultoa_invert+0x86>
    1ee0:	c9 f7       	brne	.-14     	; 0x1ed4 <__ultoa_invert+0x5c>
    1ee2:	f6 cf       	rjmp	.-20     	; 0x1ed0 <__ultoa_invert+0x58>
    1ee4:	46 2f       	mov	r20, r22
    1ee6:	4f 70       	andi	r20, 0x0F	; 15
    1ee8:	40 5d       	subi	r20, 0xD0	; 208
    1eea:	4a 33       	cpi	r20, 0x3A	; 58
    1eec:	18 f0       	brcs	.+6      	; 0x1ef4 <__ultoa_invert+0x7c>
    1eee:	49 5d       	subi	r20, 0xD9	; 217
    1ef0:	31 fd       	sbrc	r19, 1
    1ef2:	40 52       	subi	r20, 0x20	; 32
    1ef4:	41 93       	st	Z+, r20
    1ef6:	02 d0       	rcall	.+4      	; 0x1efc <__ultoa_invert+0x84>
    1ef8:	a9 f7       	brne	.-22     	; 0x1ee4 <__ultoa_invert+0x6c>
    1efa:	ea cf       	rjmp	.-44     	; 0x1ed0 <__ultoa_invert+0x58>
    1efc:	b4 e0       	ldi	r27, 0x04	; 4
    1efe:	a6 95       	lsr	r26
    1f00:	97 95       	ror	r25
    1f02:	87 95       	ror	r24
    1f04:	77 95       	ror	r23
    1f06:	67 95       	ror	r22
    1f08:	ba 95       	dec	r27
    1f0a:	c9 f7       	brne	.-14     	; 0x1efe <__ultoa_invert+0x86>
    1f0c:	00 97       	sbiw	r24, 0x00	; 0
    1f0e:	61 05       	cpc	r22, r1
    1f10:	71 05       	cpc	r23, r1
    1f12:	08 95       	ret
    1f14:	9b 01       	movw	r18, r22
    1f16:	ac 01       	movw	r20, r24
    1f18:	0a 2e       	mov	r0, r26
    1f1a:	06 94       	lsr	r0
    1f1c:	57 95       	ror	r21
    1f1e:	47 95       	ror	r20
    1f20:	37 95       	ror	r19
    1f22:	27 95       	ror	r18
    1f24:	ba 95       	dec	r27
    1f26:	c9 f7       	brne	.-14     	; 0x1f1a <__ultoa_invert+0xa2>
    1f28:	62 0f       	add	r22, r18
    1f2a:	73 1f       	adc	r23, r19
    1f2c:	84 1f       	adc	r24, r20
    1f2e:	95 1f       	adc	r25, r21
    1f30:	a0 1d       	adc	r26, r0
    1f32:	08 95       	ret

00001f34 <eeprom_read_byte>:
    1f34:	e1 99       	sbic	0x1c, 1	; 28
    1f36:	fe cf       	rjmp	.-4      	; 0x1f34 <eeprom_read_byte>
    1f38:	9f bb       	out	0x1f, r25	; 31
    1f3a:	8e bb       	out	0x1e, r24	; 30
    1f3c:	e0 9a       	sbi	0x1c, 0	; 28
    1f3e:	99 27       	eor	r25, r25
    1f40:	8d b3       	in	r24, 0x1d	; 29
    1f42:	08 95       	ret

00001f44 <__prologue_saves__>:
    1f44:	2f 92       	push	r2
    1f46:	3f 92       	push	r3
    1f48:	4f 92       	push	r4
    1f4a:	5f 92       	push	r5
    1f4c:	6f 92       	push	r6
    1f4e:	7f 92       	push	r7
    1f50:	8f 92       	push	r8
    1f52:	9f 92       	push	r9
    1f54:	af 92       	push	r10
    1f56:	bf 92       	push	r11
    1f58:	cf 92       	push	r12
    1f5a:	df 92       	push	r13
    1f5c:	ef 92       	push	r14
    1f5e:	ff 92       	push	r15
    1f60:	0f 93       	push	r16
    1f62:	1f 93       	push	r17
    1f64:	cf 93       	push	r28
    1f66:	df 93       	push	r29
    1f68:	cd b7       	in	r28, 0x3d	; 61
    1f6a:	de b7       	in	r29, 0x3e	; 62
    1f6c:	ca 1b       	sub	r28, r26
    1f6e:	db 0b       	sbc	r29, r27
    1f70:	0f b6       	in	r0, 0x3f	; 63
    1f72:	f8 94       	cli
    1f74:	de bf       	out	0x3e, r29	; 62
    1f76:	0f be       	out	0x3f, r0	; 63
    1f78:	cd bf       	out	0x3d, r28	; 61
    1f7a:	09 94       	ijmp

00001f7c <__epilogue_restores__>:
    1f7c:	2a 88       	ldd	r2, Y+18	; 0x12
    1f7e:	39 88       	ldd	r3, Y+17	; 0x11
    1f80:	48 88       	ldd	r4, Y+16	; 0x10
    1f82:	5f 84       	ldd	r5, Y+15	; 0x0f
    1f84:	6e 84       	ldd	r6, Y+14	; 0x0e
    1f86:	7d 84       	ldd	r7, Y+13	; 0x0d
    1f88:	8c 84       	ldd	r8, Y+12	; 0x0c
    1f8a:	9b 84       	ldd	r9, Y+11	; 0x0b
    1f8c:	aa 84       	ldd	r10, Y+10	; 0x0a
    1f8e:	b9 84       	ldd	r11, Y+9	; 0x09
    1f90:	c8 84       	ldd	r12, Y+8	; 0x08
    1f92:	df 80       	ldd	r13, Y+7	; 0x07
    1f94:	ee 80       	ldd	r14, Y+6	; 0x06
    1f96:	fd 80       	ldd	r15, Y+5	; 0x05
    1f98:	0c 81       	ldd	r16, Y+4	; 0x04
    1f9a:	1b 81       	ldd	r17, Y+3	; 0x03
    1f9c:	aa 81       	ldd	r26, Y+2	; 0x02
    1f9e:	b9 81       	ldd	r27, Y+1	; 0x01
    1fa0:	ce 0f       	add	r28, r30
    1fa2:	d1 1d       	adc	r29, r1
    1fa4:	0f b6       	in	r0, 0x3f	; 63
    1fa6:	f8 94       	cli
    1fa8:	de bf       	out	0x3e, r29	; 62
    1faa:	0f be       	out	0x3f, r0	; 63
    1fac:	cd bf       	out	0x3d, r28	; 61
    1fae:	ed 01       	movw	r28, r26
    1fb0:	08 95       	ret

00001fb2 <_exit>:
    1fb2:	f8 94       	cli

00001fb4 <__stop_program>:
    1fb4:	ff cf       	rjmp	.-2      	; 0x1fb4 <__stop_program>
